; ModuleID = '/home/foo/edc-predictor/benchmarks/swaptions/t4/llfi/swaptions-llfi_index.ll'
target datalayout = "e-p:64:64:64-i1:8:8-i8:8:8-i16:16:16-i32:32:32-i64:64:64-f32:32:32-f64:64:64-v64:64:64-v128:128:128-a0:0:64-s0:64:64-f80:128:128-n8:16:32:64-S128"
target triple = "x86_64-unknown-linux-gnu"

%"class.std::ios_base::Init" = type { i8 }
%struct.parm = type { i32, double, double, double, double, double, double, double, i32, double, i32, double*, double** }
%struct._IO_FILE = type { i32, i8*, i8*, i8*, i8*, i8*, i8*, i8*, i8*, i8*, i8*, i8*, %struct._IO_marker*, %struct._IO_FILE*, i32, i32, i64, i16, i8, [1 x i8], i8*, i64, i8*, i8*, i8*, i8*, i64, i32, [20 x i8] }
%struct._IO_marker = type { %struct._IO_marker*, %struct._IO_FILE*, i32 }

@_ZL1a = internal global [4 x double] [double 0x40040D931B28620D, double 0xC0329D70AE54A3DE, double 0x4044B212C473C6FC, double 0xC03970E957377778], align 16
@_ZL1b = internal global [4 x double] [double 0xC020F2700655072D, double 0x403715579181502C, double 0xC0350FEF0701E57D, double 0x40090BF020558A47], align 16
@_ZL1c = internal global [9 x double] [double 0x3FD59932C3E40368, double 0x3FEF3CC6CF8BC12D, double 0x3FC4950726690682, double 0x3F9C4EAD73E44237, double 0x3F6F7643E53E6785, double 0x3F39E62EA0A98846, double 0x3F00DEB205F58208, double 0x3E9361D5709B7B56, double 0x3E9A93C50A02D5AD], align 16
@_ZStL8__ioinit = internal global %"class.std::ios_base::Init" zeroinitializer, align 1
@NUM_TRIALS = global i32 102400, align 4
@nThreads = global i32 1, align 4
@nSwaptions = global i32 1, align 4
@iN = global i32 11, align 4
@iFactors = global i32 3, align 4
@swaptions = global %struct.parm* null, align 8
@seed = global i64 1979, align 8
@swaption_seed = global i64 0, align 8
@dSumSimSwaptionPrice_global_ptr = global double* null, align 8
@dSumSquareSimSwaptionPrice_global_ptr = global double* null, align 8
@chunksize = global i32 0, align 4
@.str = private unnamed_addr constant [14 x i8] c"iSuccess == 1\00", align 1
@.str1 = private unnamed_addr constant [19 x i8] c"HJM_Securities.cpp\00", align 1
@__PRETTY_FUNCTION__._Z6workerPv = private unnamed_addr constant [21 x i8] c"void *worker(void *)\00", align 1
@stderr = external global %struct._IO_FILE*
@.str2 = private unnamed_addr constant [31 x i8] c"Usage: %s OPTION [OPTIONS]...\0A\00", align 1
@.str3 = private unnamed_addr constant [10 x i8] c"Options:\0A\00", align 1
@.str4 = private unnamed_addr constant [59 x i8] c"\09-ns [number of swaptions (should be > number of threads]\0A\00", align 1
@.str5 = private unnamed_addr constant [30 x i8] c"\09-sm [number of simulations]\0A\00", align 1
@.str6 = private unnamed_addr constant [26 x i8] c"\09-nt [number of threads]\0A\00", align 1
@.str7 = private unnamed_addr constant [27 x i8] c"\09-sd [random number seed]\0A\00", align 1
@.str8 = private unnamed_addr constant [24 x i8] c"PARSEC Benchmark Suite\0A\00", align 1
@.str9 = private unnamed_addr constant [4 x i8] c"-sm\00", align 1
@.str10 = private unnamed_addr constant [4 x i8] c"-nt\00", align 1
@.str11 = private unnamed_addr constant [4 x i8] c"-ns\00", align 1
@.str12 = private unnamed_addr constant [4 x i8] c"-sd\00", align 1
@.str13 = private unnamed_addr constant [27 x i8] c"Error: Unknown option: %s\0A\00", align 1
@.str14 = private unnamed_addr constant [38 x i8] c"Error: Fewer swaptions than threads.\0A\00", align 1
@.str15 = private unnamed_addr constant [75 x i8] c"Number of Simulations: %d,  Number of threads: %d Number of swaptions: %d\0A\00", align 1
@.str16 = private unnamed_addr constant [46 x i8] c"Number of threads must be 1 (serial version)\0A\00", align 1
@.str17 = private unnamed_addr constant [56 x i8] c"Swaption %d: [SwaptionPrice: %.10lf StdError: %.10lf] \0A\00", align 1
@llvm.global_ctors = appending global [1 x { i32, void ()* }] [{ i32, void ()* } { i32 65535, void ()* @_GLOBAL__I_a }]
@.str18 = private unnamed_addr constant [37 x i8] c"Numerical Recipes run-time error...\0A\00", align 1
@.str119 = private unnamed_addr constant [4 x i8] c"%s\0A\00", align 1
@.str220 = private unnamed_addr constant [29 x i8] c"...now exiting to system...\0A\00", align 1
@.str321 = private unnamed_addr constant [26 x i8] c"gaussj: Singular Matrix-1\00", align 1
@.str422 = private unnamed_addr constant [26 x i8] c"gaussj: Singular Matrix-2\00", align 1
@.str523 = private unnamed_addr constant [32 x i8] c"allocation failure in ivector()\00", align 1
@.str624 = private unnamed_addr constant [32 x i8] c"allocation failure in dvector()\00", align 1
@.str725 = private unnamed_addr constant [34 x i8] c"allocation failure 1 in dmatrix()\00", align 1
@.str826 = private unnamed_addr constant [34 x i8] c"allocation failure 2 in dmatrix()\00", align 1
@call_namestr = internal constant [5 x i8] c"call\00"
@fsub_namestr = internal constant [5 x i8] c"fsub\00"
@alloca_namestr = internal constant [7 x i8] c"alloca\00"
@load_namestr = internal constant [5 x i8] c"load\00"
@fcmp_namestr = internal constant [5 x i8] c"fcmp\00"
@fmul_namestr = internal constant [5 x i8] c"fmul\00"
@fadd_namestr = internal constant [5 x i8] c"fadd\00"
@sext_namestr = internal constant [5 x i8] c"sext\00"
@getelementptr_namestr = internal constant [14 x i8] c"getelementptr\00"
@fdiv_namestr = internal constant [5 x i8] c"fdiv\00"
@sub_namestr = internal constant [4 x i8] c"sub\00"
@icmp_namestr = internal constant [5 x i8] c"icmp\00"
@add_namestr = internal constant [4 x i8] c"add\00"
@sitofp_namestr = internal constant [7 x i8] c"sitofp\00"
@mul_namestr = internal constant [4 x i8] c"mul\00"
@sdiv_namestr = internal constant [5 x i8] c"sdiv\00"
@srem_namestr = internal constant [5 x i8] c"srem\00"
@bitcast_namestr = internal constant [8 x i8] c"bitcast\00"
@fptosi_namestr = internal constant [7 x i8] c"fptosi\00"
@phi_namestr = internal constant [4 x i8] c"phi\00"

; Function Attrs: nounwind uwtable
define double @_Z12CumNormalInvd(double %u) #0 {
  %1 = alloca double, align 8, !llfi_index !1
  %fi2 = call double* @injectFault3(i64 1, double* %1, i32 26, i32 0, i32 1, i32 0, i8* getelementptr inbounds ([7 x i8]* @alloca_namestr, i32 0, i32 0)), !llfi_injectfault !2
  %2 = alloca double, align 8, !llfi_index !3
  %fi7 = call double* @injectFault3(i64 2, double* %2, i32 26, i32 0, i32 1, i32 0, i8* getelementptr inbounds ([7 x i8]* @alloca_namestr, i32 0, i32 0)), !llfi_injectfault !2
  %x = alloca double, align 8, !llfi_index !4
  %fi8 = call double* @injectFault3(i64 3, double* %x, i32 26, i32 0, i32 1, i32 0, i8* getelementptr inbounds ([7 x i8]* @alloca_namestr, i32 0, i32 0)), !llfi_injectfault !2
  %r = alloca double, align 8, !llfi_index !5
  %fi9 = call double* @injectFault3(i64 4, double* %r, i32 26, i32 0, i32 1, i32 0, i8* getelementptr inbounds ([7 x i8]* @alloca_namestr, i32 0, i32 0)), !llfi_injectfault !2
  store double %u, double* %fi7, align 8, !llfi_index !6
  %3 = load double* %fi7, align 8, !llfi_index !7
  %fi10 = call double @injectFault0(i64 6, double %3, i32 27, i32 0, i32 1, i32 0, i8* getelementptr inbounds ([5 x i8]* @load_namestr, i32 0, i32 0)), !llfi_injectfault !2
  %4 = fsub double %fi10, 5.000000e-01, !llfi_index !8
  %fi11 = call double @injectFault0(i64 7, double %4, i32 11, i32 0, i32 1, i32 0, i8* getelementptr inbounds ([5 x i8]* @fsub_namestr, i32 0, i32 0)), !llfi_injectfault !2
  store double %fi11, double* %fi8, align 8, !llfi_index !9
  %5 = load double* %fi8, align 8, !llfi_index !10
  %fi12 = call double @injectFault0(i64 9, double %5, i32 27, i32 0, i32 1, i32 0, i8* getelementptr inbounds ([5 x i8]* @load_namestr, i32 0, i32 0)), !llfi_injectfault !2
  %6 = call double @fabs(double %fi12) #8, !llfi_index !11
  %fi13 = call double @injectFault0(i64 10, double %6, i32 49, i32 0, i32 1, i32 0, i8* getelementptr inbounds ([5 x i8]* @call_namestr, i32 0, i32 0)), !llfi_injectfault !2
  %7 = fcmp olt double %fi13, 4.200000e-01, !llfi_index !12
  %fi14 = call i1 @injectFault4(i64 11, i1 %7, i32 47, i32 0, i32 1, i32 0, i8* getelementptr inbounds ([5 x i8]* @fcmp_namestr, i32 0, i32 0)), !llfi_injectfault !2
  br i1 %fi14, label %8, label %45, !llfi_index !13

; <label>:8                                       ; preds = %0
  %9 = load double* %fi8, align 8, !llfi_index !14
  %fi16 = call double @injectFault0(i64 13, double %9, i32 27, i32 0, i32 1, i32 0, i8* getelementptr inbounds ([5 x i8]* @load_namestr, i32 0, i32 0)), !llfi_injectfault !2
  %10 = load double* %fi8, align 8, !llfi_index !15
  %fi17 = call double @injectFault0(i64 14, double %10, i32 27, i32 0, i32 1, i32 0, i8* getelementptr inbounds ([5 x i8]* @load_namestr, i32 0, i32 0)), !llfi_injectfault !2
  %11 = fmul double %fi16, %fi17, !llfi_index !16
  %fi18 = call double @injectFault0(i64 15, double %11, i32 13, i32 0, i32 1, i32 0, i8* getelementptr inbounds ([5 x i8]* @fmul_namestr, i32 0, i32 0)), !llfi_injectfault !2
  store double %fi18, double* %fi9, align 8, !llfi_index !17
  %12 = load double* %fi8, align 8, !llfi_index !18
  %fi19 = call double @injectFault0(i64 17, double %12, i32 27, i32 0, i32 1, i32 0, i8* getelementptr inbounds ([5 x i8]* @load_namestr, i32 0, i32 0)), !llfi_injectfault !2
  %13 = load double* getelementptr inbounds ([4 x double]* @_ZL1a, i32 0, i64 3), align 8, !llfi_index !19
  %fi20 = call double @injectFault0(i64 18, double %13, i32 27, i32 0, i32 1, i32 0, i8* getelementptr inbounds ([5 x i8]* @load_namestr, i32 0, i32 0)), !llfi_injectfault !2
  %14 = load double* %fi9, align 8, !llfi_index !20
  %fi21 = call double @injectFault0(i64 19, double %14, i32 27, i32 0, i32 1, i32 0, i8* getelementptr inbounds ([5 x i8]* @load_namestr, i32 0, i32 0)), !llfi_injectfault !2
  %15 = fmul double %fi20, %fi21, !llfi_index !21
  %fi22 = call double @injectFault0(i64 20, double %15, i32 13, i32 0, i32 1, i32 0, i8* getelementptr inbounds ([5 x i8]* @fmul_namestr, i32 0, i32 0)), !llfi_injectfault !2
  %16 = load double* getelementptr inbounds ([4 x double]* @_ZL1a, i32 0, i64 2), align 8, !llfi_index !22
  %fi23 = call double @injectFault0(i64 21, double %16, i32 27, i32 0, i32 1, i32 0, i8* getelementptr inbounds ([5 x i8]* @load_namestr, i32 0, i32 0)), !llfi_injectfault !2
  %17 = fadd double %fi22, %fi23, !llfi_index !23
  %fi15 = call double @injectFault0(i64 22, double %17, i32 9, i32 0, i32 1, i32 0, i8* getelementptr inbounds ([5 x i8]* @fadd_namestr, i32 0, i32 0)), !llfi_injectfault !2
  %18 = load double* %fi9, align 8, !llfi_index !24
  %fi25 = call double @injectFault0(i64 23, double %18, i32 27, i32 0, i32 1, i32 0, i8* getelementptr inbounds ([5 x i8]* @load_namestr, i32 0, i32 0)), !llfi_injectfault !2
  %19 = fmul double %fi15, %fi25, !llfi_index !25
  %fi26 = call double @injectFault0(i64 24, double %19, i32 13, i32 0, i32 1, i32 0, i8* getelementptr inbounds ([5 x i8]* @fmul_namestr, i32 0, i32 0)), !llfi_injectfault !2
  %20 = load double* getelementptr inbounds ([4 x double]* @_ZL1a, i32 0, i64 1), align 8, !llfi_index !26
  %fi27 = call double @injectFault0(i64 25, double %20, i32 27, i32 0, i32 1, i32 0, i8* getelementptr inbounds ([5 x i8]* @load_namestr, i32 0, i32 0)), !llfi_injectfault !2
  %21 = fadd double %fi26, %fi27, !llfi_index !27
  %fi28 = call double @injectFault0(i64 26, double %21, i32 9, i32 0, i32 1, i32 0, i8* getelementptr inbounds ([5 x i8]* @fadd_namestr, i32 0, i32 0)), !llfi_injectfault !2
  %22 = load double* %fi9, align 8, !llfi_index !28
  %fi29 = call double @injectFault0(i64 27, double %22, i32 27, i32 0, i32 1, i32 0, i8* getelementptr inbounds ([5 x i8]* @load_namestr, i32 0, i32 0)), !llfi_injectfault !2
  %23 = fmul double %fi28, %fi29, !llfi_index !29
  %fi30 = call double @injectFault0(i64 28, double %23, i32 13, i32 0, i32 1, i32 0, i8* getelementptr inbounds ([5 x i8]* @fmul_namestr, i32 0, i32 0)), !llfi_injectfault !2
  %24 = load double* getelementptr inbounds ([4 x double]* @_ZL1a, i32 0, i64 0), align 8, !llfi_index !30
  %fi31 = call double @injectFault0(i64 29, double %24, i32 27, i32 0, i32 1, i32 0, i8* getelementptr inbounds ([5 x i8]* @load_namestr, i32 0, i32 0)), !llfi_injectfault !2
  %25 = fadd double %fi30, %fi31, !llfi_index !31
  %fi32 = call double @injectFault0(i64 30, double %25, i32 9, i32 0, i32 1, i32 0, i8* getelementptr inbounds ([5 x i8]* @fadd_namestr, i32 0, i32 0)), !llfi_injectfault !2
  %26 = fmul double %fi19, %fi32, !llfi_index !32
  %fi33 = call double @injectFault0(i64 31, double %26, i32 13, i32 0, i32 1, i32 0, i8* getelementptr inbounds ([5 x i8]* @fmul_namestr, i32 0, i32 0)), !llfi_injectfault !2
  %27 = load double* getelementptr inbounds ([4 x double]* @_ZL1b, i32 0, i64 3), align 8, !llfi_index !33
  %fi34 = call double @injectFault0(i64 32, double %27, i32 27, i32 0, i32 1, i32 0, i8* getelementptr inbounds ([5 x i8]* @load_namestr, i32 0, i32 0)), !llfi_injectfault !2
  %28 = load double* %fi9, align 8, !llfi_index !34
  %fi35 = call double @injectFault0(i64 33, double %28, i32 27, i32 0, i32 1, i32 0, i8* getelementptr inbounds ([5 x i8]* @load_namestr, i32 0, i32 0)), !llfi_injectfault !2
  %29 = fmul double %fi34, %fi35, !llfi_index !35
  %fi36 = call double @injectFault0(i64 34, double %29, i32 13, i32 0, i32 1, i32 0, i8* getelementptr inbounds ([5 x i8]* @fmul_namestr, i32 0, i32 0)), !llfi_injectfault !2
  %30 = load double* getelementptr inbounds ([4 x double]* @_ZL1b, i32 0, i64 2), align 8, !llfi_index !36
  %fi37 = call double @injectFault0(i64 35, double %30, i32 27, i32 0, i32 1, i32 0, i8* getelementptr inbounds ([5 x i8]* @load_namestr, i32 0, i32 0)), !llfi_injectfault !2
  %31 = fadd double %fi36, %fi37, !llfi_index !37
  %fi38 = call double @injectFault0(i64 36, double %31, i32 9, i32 0, i32 1, i32 0, i8* getelementptr inbounds ([5 x i8]* @fadd_namestr, i32 0, i32 0)), !llfi_injectfault !2
  %32 = load double* %fi9, align 8, !llfi_index !38
  %fi39 = call double @injectFault0(i64 37, double %32, i32 27, i32 0, i32 1, i32 0, i8* getelementptr inbounds ([5 x i8]* @load_namestr, i32 0, i32 0)), !llfi_injectfault !2
  %33 = fmul double %fi38, %fi39, !llfi_index !39
  %fi24 = call double @injectFault0(i64 38, double %33, i32 13, i32 0, i32 1, i32 0, i8* getelementptr inbounds ([5 x i8]* @fmul_namestr, i32 0, i32 0)), !llfi_injectfault !2
  %34 = load double* getelementptr inbounds ([4 x double]* @_ZL1b, i32 0, i64 1), align 8, !llfi_index !40
  %fi40 = call double @injectFault0(i64 39, double %34, i32 27, i32 0, i32 1, i32 0, i8* getelementptr inbounds ([5 x i8]* @load_namestr, i32 0, i32 0)), !llfi_injectfault !2
  %35 = fadd double %fi24, %fi40, !llfi_index !41
  %fi41 = call double @injectFault0(i64 40, double %35, i32 9, i32 0, i32 1, i32 0, i8* getelementptr inbounds ([5 x i8]* @fadd_namestr, i32 0, i32 0)), !llfi_injectfault !2
  %36 = load double* %fi9, align 8, !llfi_index !42
  %fi42 = call double @injectFault0(i64 41, double %36, i32 27, i32 0, i32 1, i32 0, i8* getelementptr inbounds ([5 x i8]* @load_namestr, i32 0, i32 0)), !llfi_injectfault !2
  %37 = fmul double %fi41, %fi42, !llfi_index !43
  %fi43 = call double @injectFault0(i64 42, double %37, i32 13, i32 0, i32 1, i32 0, i8* getelementptr inbounds ([5 x i8]* @fmul_namestr, i32 0, i32 0)), !llfi_injectfault !2
  %38 = load double* getelementptr inbounds ([4 x double]* @_ZL1b, i32 0, i64 0), align 8, !llfi_index !44
  %fi44 = call double @injectFault0(i64 43, double %38, i32 27, i32 0, i32 1, i32 0, i8* getelementptr inbounds ([5 x i8]* @load_namestr, i32 0, i32 0)), !llfi_injectfault !2
  %39 = fadd double %fi43, %fi44, !llfi_index !45
  %fi45 = call double @injectFault0(i64 44, double %39, i32 9, i32 0, i32 1, i32 0, i8* getelementptr inbounds ([5 x i8]* @fadd_namestr, i32 0, i32 0)), !llfi_injectfault !2
  %40 = load double* %fi9, align 8, !llfi_index !46
  %fi46 = call double @injectFault0(i64 45, double %40, i32 27, i32 0, i32 1, i32 0, i8* getelementptr inbounds ([5 x i8]* @load_namestr, i32 0, i32 0)), !llfi_injectfault !2
  %41 = fmul double %fi45, %fi46, !llfi_index !47
  %fi47 = call double @injectFault0(i64 46, double %41, i32 13, i32 0, i32 1, i32 0, i8* getelementptr inbounds ([5 x i8]* @fmul_namestr, i32 0, i32 0)), !llfi_injectfault !2
  %42 = fadd double %fi47, 1.000000e+00, !llfi_index !48
  %fi48 = call double @injectFault0(i64 47, double %42, i32 9, i32 0, i32 1, i32 0, i8* getelementptr inbounds ([5 x i8]* @fadd_namestr, i32 0, i32 0)), !llfi_injectfault !2
  %43 = fdiv double %fi33, %fi48, !llfi_index !49
  %fi49 = call double @injectFault0(i64 48, double %43, i32 16, i32 0, i32 1, i32 0, i8* getelementptr inbounds ([5 x i8]* @fdiv_namestr, i32 0, i32 0)), !llfi_injectfault !2
  store double %fi49, double* %fi9, align 8, !llfi_index !50
  %44 = load double* %fi9, align 8, !llfi_index !51
  %fi3 = call double @injectFault0(i64 50, double %44, i32 27, i32 0, i32 1, i32 0, i8* getelementptr inbounds ([5 x i8]* @load_namestr, i32 0, i32 0)), !llfi_injectfault !2
  store double %fi3, double* %fi2, !llfi_index !52
  br label %97, !llfi_index !53

; <label>:45                                      ; preds = %0
  %46 = load double* %fi7, align 8, !llfi_index !54
  %fi4 = call double @injectFault0(i64 53, double %46, i32 27, i32 0, i32 1, i32 0, i8* getelementptr inbounds ([5 x i8]* @load_namestr, i32 0, i32 0)), !llfi_injectfault !2
  store double %fi4, double* %fi9, align 8, !llfi_index !55
  %47 = load double* %fi8, align 8, !llfi_index !56
  %fi5 = call double @injectFault0(i64 55, double %47, i32 27, i32 0, i32 1, i32 0, i8* getelementptr inbounds ([5 x i8]* @load_namestr, i32 0, i32 0)), !llfi_injectfault !2
  %48 = fcmp ogt double %fi5, 0.000000e+00, !llfi_index !57
  %fi6 = call i1 @injectFault4(i64 56, i1 %48, i32 47, i32 0, i32 1, i32 0, i8* getelementptr inbounds ([5 x i8]* @fcmp_namestr, i32 0, i32 0)), !llfi_injectfault !2
  br i1 %fi6, label %49, label %52, !llfi_index !58

; <label>:49                                      ; preds = %45
  %50 = load double* %fi7, align 8, !llfi_index !59
  %fi59 = call double @injectFault0(i64 58, double %50, i32 27, i32 0, i32 1, i32 0, i8* getelementptr inbounds ([5 x i8]* @load_namestr, i32 0, i32 0)), !llfi_injectfault !2
  %51 = fsub double 1.000000e+00, %fi59, !llfi_index !60
  %fi60 = call double @injectFault0(i64 59, double %51, i32 11, i32 0, i32 1, i32 0, i8* getelementptr inbounds ([5 x i8]* @fsub_namestr, i32 0, i32 0)), !llfi_injectfault !2
  store double %fi60, double* %fi9, align 8, !llfi_index !61
  br label %52, !llfi_index !62

; <label>:52                                      ; preds = %49, %45
  %53 = load double* %fi9, align 8, !llfi_index !63
  %fi61 = call double @injectFault0(i64 62, double %53, i32 27, i32 0, i32 1, i32 0, i8* getelementptr inbounds ([5 x i8]* @load_namestr, i32 0, i32 0)), !llfi_injectfault !2
  %54 = call double @log(double %fi61) #5, !llfi_index !64
  %fi = call double @injectFault0(i64 63, double %54, i32 49, i32 0, i32 1, i32 0, i8* getelementptr inbounds ([5 x i8]* @call_namestr, i32 0, i32 0)), !llfi_injectfault !2
  %55 = fsub double -0.000000e+00, %fi, !llfi_index !65
  %fi1 = call double @injectFault0(i64 64, double %55, i32 11, i32 0, i32 1, i32 0, i8* getelementptr inbounds ([5 x i8]* @fsub_namestr, i32 0, i32 0)), !llfi_injectfault !2
  %56 = call double @log(double %fi1) #5, !llfi_index !66
  %fi62 = call double @injectFault0(i64 65, double %56, i32 49, i32 0, i32 1, i32 0, i8* getelementptr inbounds ([5 x i8]* @call_namestr, i32 0, i32 0)), !llfi_injectfault !2
  store double %fi62, double* %fi9, align 8, !llfi_index !67
  %57 = load double* getelementptr inbounds ([9 x double]* @_ZL1c, i32 0, i64 0), align 8, !llfi_index !68
  %fi63 = call double @injectFault0(i64 67, double %57, i32 27, i32 0, i32 1, i32 0, i8* getelementptr inbounds ([5 x i8]* @load_namestr, i32 0, i32 0)), !llfi_injectfault !2
  %58 = load double* %fi9, align 8, !llfi_index !69
  %fi64 = call double @injectFault0(i64 68, double %58, i32 27, i32 0, i32 1, i32 0, i8* getelementptr inbounds ([5 x i8]* @load_namestr, i32 0, i32 0)), !llfi_injectfault !2
  %59 = load double* getelementptr inbounds ([9 x double]* @_ZL1c, i32 0, i64 1), align 8, !llfi_index !70
  %fi65 = call double @injectFault0(i64 69, double %59, i32 27, i32 0, i32 1, i32 0, i8* getelementptr inbounds ([5 x i8]* @load_namestr, i32 0, i32 0)), !llfi_injectfault !2
  %60 = load double* %fi9, align 8, !llfi_index !71
  %fi66 = call double @injectFault0(i64 70, double %60, i32 27, i32 0, i32 1, i32 0, i8* getelementptr inbounds ([5 x i8]* @load_namestr, i32 0, i32 0)), !llfi_injectfault !2
  %61 = load double* getelementptr inbounds ([9 x double]* @_ZL1c, i32 0, i64 2), align 8, !llfi_index !72
  %fi67 = call double @injectFault0(i64 71, double %61, i32 27, i32 0, i32 1, i32 0, i8* getelementptr inbounds ([5 x i8]* @load_namestr, i32 0, i32 0)), !llfi_injectfault !2
  %62 = load double* %fi9, align 8, !llfi_index !73
  %fi68 = call double @injectFault0(i64 72, double %62, i32 27, i32 0, i32 1, i32 0, i8* getelementptr inbounds ([5 x i8]* @load_namestr, i32 0, i32 0)), !llfi_injectfault !2
  %63 = load double* getelementptr inbounds ([9 x double]* @_ZL1c, i32 0, i64 3), align 8, !llfi_index !74
  %fi69 = call double @injectFault0(i64 73, double %63, i32 27, i32 0, i32 1, i32 0, i8* getelementptr inbounds ([5 x i8]* @load_namestr, i32 0, i32 0)), !llfi_injectfault !2
  %64 = load double* %fi9, align 8, !llfi_index !75
  %fi70 = call double @injectFault0(i64 74, double %64, i32 27, i32 0, i32 1, i32 0, i8* getelementptr inbounds ([5 x i8]* @load_namestr, i32 0, i32 0)), !llfi_injectfault !2
  %65 = load double* getelementptr inbounds ([9 x double]* @_ZL1c, i32 0, i64 4), align 8, !llfi_index !76
  %fi71 = call double @injectFault0(i64 75, double %65, i32 27, i32 0, i32 1, i32 0, i8* getelementptr inbounds ([5 x i8]* @load_namestr, i32 0, i32 0)), !llfi_injectfault !2
  %66 = load double* %fi9, align 8, !llfi_index !77
  %fi72 = call double @injectFault0(i64 76, double %66, i32 27, i32 0, i32 1, i32 0, i8* getelementptr inbounds ([5 x i8]* @load_namestr, i32 0, i32 0)), !llfi_injectfault !2
  %67 = load double* getelementptr inbounds ([9 x double]* @_ZL1c, i32 0, i64 5), align 8, !llfi_index !78
  %fi73 = call double @injectFault0(i64 77, double %67, i32 27, i32 0, i32 1, i32 0, i8* getelementptr inbounds ([5 x i8]* @load_namestr, i32 0, i32 0)), !llfi_injectfault !2
  %68 = load double* %fi9, align 8, !llfi_index !79
  %fi74 = call double @injectFault0(i64 78, double %68, i32 27, i32 0, i32 1, i32 0, i8* getelementptr inbounds ([5 x i8]* @load_namestr, i32 0, i32 0)), !llfi_injectfault !2
  %69 = load double* getelementptr inbounds ([9 x double]* @_ZL1c, i32 0, i64 6), align 8, !llfi_index !80
  %fi75 = call double @injectFault0(i64 79, double %69, i32 27, i32 0, i32 1, i32 0, i8* getelementptr inbounds ([5 x i8]* @load_namestr, i32 0, i32 0)), !llfi_injectfault !2
  %70 = load double* %fi9, align 8, !llfi_index !81
  %fi76 = call double @injectFault0(i64 80, double %70, i32 27, i32 0, i32 1, i32 0, i8* getelementptr inbounds ([5 x i8]* @load_namestr, i32 0, i32 0)), !llfi_injectfault !2
  %71 = load double* getelementptr inbounds ([9 x double]* @_ZL1c, i32 0, i64 7), align 8, !llfi_index !82
  %fi77 = call double @injectFault0(i64 81, double %71, i32 27, i32 0, i32 1, i32 0, i8* getelementptr inbounds ([5 x i8]* @load_namestr, i32 0, i32 0)), !llfi_injectfault !2
  %72 = load double* %fi9, align 8, !llfi_index !83
  %fi78 = call double @injectFault0(i64 82, double %72, i32 27, i32 0, i32 1, i32 0, i8* getelementptr inbounds ([5 x i8]* @load_namestr, i32 0, i32 0)), !llfi_injectfault !2
  %73 = load double* getelementptr inbounds ([9 x double]* @_ZL1c, i32 0, i64 8), align 8, !llfi_index !84
  %fi79 = call double @injectFault0(i64 83, double %73, i32 27, i32 0, i32 1, i32 0, i8* getelementptr inbounds ([5 x i8]* @load_namestr, i32 0, i32 0)), !llfi_injectfault !2
  %74 = fmul double %fi78, %fi79, !llfi_index !85
  %fi80 = call double @injectFault0(i64 84, double %74, i32 13, i32 0, i32 1, i32 0, i8* getelementptr inbounds ([5 x i8]* @fmul_namestr, i32 0, i32 0)), !llfi_injectfault !2
  %75 = fadd double %fi77, %fi80, !llfi_index !86
  %fi81 = call double @injectFault0(i64 85, double %75, i32 9, i32 0, i32 1, i32 0, i8* getelementptr inbounds ([5 x i8]* @fadd_namestr, i32 0, i32 0)), !llfi_injectfault !2
  %76 = fmul double %fi76, %fi81, !llfi_index !87
  %fi82 = call double @injectFault0(i64 86, double %76, i32 13, i32 0, i32 1, i32 0, i8* getelementptr inbounds ([5 x i8]* @fmul_namestr, i32 0, i32 0)), !llfi_injectfault !2
  %77 = fadd double %fi75, %fi82, !llfi_index !88
  %fi83 = call double @injectFault0(i64 87, double %77, i32 9, i32 0, i32 1, i32 0, i8* getelementptr inbounds ([5 x i8]* @fadd_namestr, i32 0, i32 0)), !llfi_injectfault !2
  %78 = fmul double %fi74, %fi83, !llfi_index !89
  %fi84 = call double @injectFault0(i64 88, double %78, i32 13, i32 0, i32 1, i32 0, i8* getelementptr inbounds ([5 x i8]* @fmul_namestr, i32 0, i32 0)), !llfi_injectfault !2
  %79 = fadd double %fi73, %fi84, !llfi_index !90
  %fi85 = call double @injectFault0(i64 89, double %79, i32 9, i32 0, i32 1, i32 0, i8* getelementptr inbounds ([5 x i8]* @fadd_namestr, i32 0, i32 0)), !llfi_injectfault !2
  %80 = fmul double %fi72, %fi85, !llfi_index !91
  %fi86 = call double @injectFault0(i64 90, double %80, i32 13, i32 0, i32 1, i32 0, i8* getelementptr inbounds ([5 x i8]* @fmul_namestr, i32 0, i32 0)), !llfi_injectfault !2
  %81 = fadd double %fi71, %fi86, !llfi_index !92
  %fi87 = call double @injectFault0(i64 91, double %81, i32 9, i32 0, i32 1, i32 0, i8* getelementptr inbounds ([5 x i8]* @fadd_namestr, i32 0, i32 0)), !llfi_injectfault !2
  %82 = fmul double %fi70, %fi87, !llfi_index !93
  %fi88 = call double @injectFault0(i64 92, double %82, i32 13, i32 0, i32 1, i32 0, i8* getelementptr inbounds ([5 x i8]* @fmul_namestr, i32 0, i32 0)), !llfi_injectfault !2
  %83 = fadd double %fi69, %fi88, !llfi_index !94
  %fi89 = call double @injectFault0(i64 93, double %83, i32 9, i32 0, i32 1, i32 0, i8* getelementptr inbounds ([5 x i8]* @fadd_namestr, i32 0, i32 0)), !llfi_injectfault !2
  %84 = fmul double %fi68, %fi89, !llfi_index !95
  %fi90 = call double @injectFault0(i64 94, double %84, i32 13, i32 0, i32 1, i32 0, i8* getelementptr inbounds ([5 x i8]* @fmul_namestr, i32 0, i32 0)), !llfi_injectfault !2
  %85 = fadd double %fi67, %fi90, !llfi_index !96
  %fi91 = call double @injectFault0(i64 95, double %85, i32 9, i32 0, i32 1, i32 0, i8* getelementptr inbounds ([5 x i8]* @fadd_namestr, i32 0, i32 0)), !llfi_injectfault !2
  %86 = fmul double %fi66, %fi91, !llfi_index !97
  %fi92 = call double @injectFault0(i64 96, double %86, i32 13, i32 0, i32 1, i32 0, i8* getelementptr inbounds ([5 x i8]* @fmul_namestr, i32 0, i32 0)), !llfi_injectfault !2
  %87 = fadd double %fi65, %fi92, !llfi_index !98
  %fi50 = call double @injectFault0(i64 97, double %87, i32 9, i32 0, i32 1, i32 0, i8* getelementptr inbounds ([5 x i8]* @fadd_namestr, i32 0, i32 0)), !llfi_injectfault !2
  %88 = fmul double %fi64, %fi50, !llfi_index !99
  %fi51 = call double @injectFault0(i64 98, double %88, i32 13, i32 0, i32 1, i32 0, i8* getelementptr inbounds ([5 x i8]* @fmul_namestr, i32 0, i32 0)), !llfi_injectfault !2
  %89 = fadd double %fi63, %fi51, !llfi_index !100
  %fi52 = call double @injectFault0(i64 99, double %89, i32 9, i32 0, i32 1, i32 0, i8* getelementptr inbounds ([5 x i8]* @fadd_namestr, i32 0, i32 0)), !llfi_injectfault !2
  store double %fi52, double* %fi9, align 8, !llfi_index !101
  %90 = load double* %fi8, align 8, !llfi_index !102
  %fi53 = call double @injectFault0(i64 101, double %90, i32 27, i32 0, i32 1, i32 0, i8* getelementptr inbounds ([5 x i8]* @load_namestr, i32 0, i32 0)), !llfi_injectfault !2
  %91 = fcmp olt double %fi53, 0.000000e+00, !llfi_index !103
  %fi54 = call i1 @injectFault4(i64 102, i1 %91, i32 47, i32 0, i32 1, i32 0, i8* getelementptr inbounds ([5 x i8]* @fcmp_namestr, i32 0, i32 0)), !llfi_injectfault !2
  br i1 %fi54, label %92, label %95, !llfi_index !104

; <label>:92                                      ; preds = %52
  %93 = load double* %fi9, align 8, !llfi_index !105
  %fi55 = call double @injectFault0(i64 104, double %93, i32 27, i32 0, i32 1, i32 0, i8* getelementptr inbounds ([5 x i8]* @load_namestr, i32 0, i32 0)), !llfi_injectfault !2
  %94 = fsub double -0.000000e+00, %fi55, !llfi_index !106
  %fi56 = call double @injectFault0(i64 105, double %94, i32 11, i32 0, i32 1, i32 0, i8* getelementptr inbounds ([5 x i8]* @fsub_namestr, i32 0, i32 0)), !llfi_injectfault !2
  store double %fi56, double* %fi9, align 8, !llfi_index !107
  br label %95, !llfi_index !108

; <label>:95                                      ; preds = %92, %52
  %96 = load double* %fi9, align 8, !llfi_index !109
  %fi57 = call double @injectFault0(i64 108, double %96, i32 27, i32 0, i32 1, i32 0, i8* getelementptr inbounds ([5 x i8]* @load_namestr, i32 0, i32 0)), !llfi_injectfault !2
  store double %fi57, double* %fi2, !llfi_index !110
  br label %97, !llfi_index !111

; <label>:97                                      ; preds = %95, %8
  %98 = load double* %fi2, !llfi_index !112
  %fi58 = call double @injectFault0(i64 111, double %98, i32 27, i32 0, i32 1, i32 0, i8* getelementptr inbounds ([5 x i8]* @load_namestr, i32 0, i32 0)), !llfi_injectfault !2
  ret double %fi58, !llfi_index !113
}

; Function Attrs: nounwind readnone
declare double @fabs(double) #1

; Function Attrs: nounwind
declare double @log(double) #2

; Function Attrs: uwtable
define i32 @_Z17HJM_SimPath_YieldPPdiidS_S0_Pl(double** %ppdHJMPath, i32 %iN, i32 %iFactors, double %dYears, double* %pdYield, double** %ppdFactors, i64* %lRndSeed) #3 {
  %1 = alloca i32, align 4, !llfi_index !114
  %fi = call i32* @injectFault2(i64 113, i32* %1, i32 26, i32 0, i32 1, i32 0, i8* getelementptr inbounds ([7 x i8]* @alloca_namestr, i32 0, i32 0)), !llfi_injectfault !2
  %2 = alloca double**, align 8, !llfi_index !115
  %fi27 = call double*** @injectFault1(i64 114, double*** %2, i32 26, i32 0, i32 1, i32 0, i8* getelementptr inbounds ([7 x i8]* @alloca_namestr, i32 0, i32 0)), !llfi_injectfault !2
  %3 = alloca i32, align 4, !llfi_index !116
  %fi28 = call i32* @injectFault2(i64 115, i32* %3, i32 26, i32 0, i32 1, i32 0, i8* getelementptr inbounds ([7 x i8]* @alloca_namestr, i32 0, i32 0)), !llfi_injectfault !2
  %4 = alloca i32, align 4, !llfi_index !117
  %fi29 = call i32* @injectFault2(i64 116, i32* %4, i32 26, i32 0, i32 1, i32 0, i8* getelementptr inbounds ([7 x i8]* @alloca_namestr, i32 0, i32 0)), !llfi_injectfault !2
  %5 = alloca double, align 8, !llfi_index !118
  %fi30 = call double* @injectFault3(i64 117, double* %5, i32 26, i32 0, i32 1, i32 0, i8* getelementptr inbounds ([7 x i8]* @alloca_namestr, i32 0, i32 0)), !llfi_injectfault !2
  %6 = alloca double*, align 8, !llfi_index !119
  %fi31 = call double** @injectFault8(i64 118, double** %6, i32 26, i32 0, i32 1, i32 0, i8* getelementptr inbounds ([7 x i8]* @alloca_namestr, i32 0, i32 0)), !llfi_injectfault !2
  %7 = alloca double**, align 8, !llfi_index !120
  %fi32 = call double*** @injectFault1(i64 119, double*** %7, i32 26, i32 0, i32 1, i32 0, i8* getelementptr inbounds ([7 x i8]* @alloca_namestr, i32 0, i32 0)), !llfi_injectfault !2
  %8 = alloca i64*, align 8, !llfi_index !121
  %fi33 = call i64** @injectFault10(i64 120, i64** %8, i32 26, i32 0, i32 1, i32 0, i8* getelementptr inbounds ([7 x i8]* @alloca_namestr, i32 0, i32 0)), !llfi_injectfault !2
  %iSuccess = alloca i32, align 4, !llfi_index !122
  %fi34 = call i32* @injectFault2(i64 121, i32* %iSuccess, i32 26, i32 0, i32 1, i32 0, i8* getelementptr inbounds ([7 x i8]* @alloca_namestr, i32 0, i32 0)), !llfi_injectfault !2
  %pdForward = alloca double*, align 8, !llfi_index !123
  %fi35 = call double** @injectFault8(i64 122, double** %pdForward, i32 26, i32 0, i32 1, i32 0, i8* getelementptr inbounds ([7 x i8]* @alloca_namestr, i32 0, i32 0)), !llfi_injectfault !2
  %ppdDrifts = alloca double**, align 8, !llfi_index !124
  %fi36 = call double*** @injectFault1(i64 123, double*** %ppdDrifts, i32 26, i32 0, i32 1, i32 0, i8* getelementptr inbounds ([7 x i8]* @alloca_namestr, i32 0, i32 0)), !llfi_injectfault !2
  %pdTotalDrift = alloca double*, align 8, !llfi_index !125
  %fi37 = call double** @injectFault8(i64 124, double** %pdTotalDrift, i32 26, i32 0, i32 1, i32 0, i8* getelementptr inbounds ([7 x i8]* @alloca_namestr, i32 0, i32 0)), !llfi_injectfault !2
  store double** %ppdHJMPath, double*** %fi27, align 8, !llfi_index !126
  store i32 %iN, i32* %fi28, align 4, !llfi_index !127
  store i32 %iFactors, i32* %fi29, align 4, !llfi_index !128
  store double %dYears, double* %fi30, align 8, !llfi_index !129
  store double* %pdYield, double** %fi31, align 8, !llfi_index !130
  store double** %ppdFactors, double*** %fi32, align 8, !llfi_index !131
  store i64* %lRndSeed, i64** %fi33, align 8, !llfi_index !132
  store i32 0, i32* %fi34, align 4, !llfi_index !133
  %9 = load i32* %fi28, align 4, !llfi_index !134
  %fi38 = call i32 @injectFault5(i64 133, i32 %9, i32 27, i32 0, i32 1, i32 0, i8* getelementptr inbounds ([5 x i8]* @load_namestr, i32 0, i32 0)), !llfi_injectfault !2
  %10 = sub nsw i32 %fi38, 1, !llfi_index !135
  %fi39 = call i32 @injectFault5(i64 134, i32 %10, i32 10, i32 0, i32 1, i32 0, i8* getelementptr inbounds ([4 x i8]* @sub_namestr, i32 0, i32 0)), !llfi_injectfault !2
  %11 = sext i32 %fi39 to i64, !llfi_index !136
  %fi40 = call i64 @injectFault6(i64 135, i64 %11, i32 35, i32 0, i32 1, i32 0, i8* getelementptr inbounds ([5 x i8]* @sext_namestr, i32 0, i32 0)), !llfi_injectfault !2
  %12 = call double* @_Z7dvectorll(i64 0, i64 %fi40), !llfi_index !137
  %fi41 = call double* @injectFault3(i64 136, double* %12, i32 49, i32 0, i32 1, i32 0, i8* getelementptr inbounds ([5 x i8]* @call_namestr, i32 0, i32 0)), !llfi_injectfault !2
  store double* %fi41, double** %fi35, align 8, !llfi_index !138
  %13 = load i32* %fi29, align 4, !llfi_index !139
  %fi42 = call i32 @injectFault5(i64 138, i32 %13, i32 27, i32 0, i32 1, i32 0, i8* getelementptr inbounds ([5 x i8]* @load_namestr, i32 0, i32 0)), !llfi_injectfault !2
  %14 = sub nsw i32 %fi42, 1, !llfi_index !140
  %fi43 = call i32 @injectFault5(i64 139, i32 %14, i32 10, i32 0, i32 1, i32 0, i8* getelementptr inbounds ([4 x i8]* @sub_namestr, i32 0, i32 0)), !llfi_injectfault !2
  %15 = sext i32 %fi43 to i64, !llfi_index !141
  %fi44 = call i64 @injectFault6(i64 140, i64 %15, i32 35, i32 0, i32 1, i32 0, i8* getelementptr inbounds ([5 x i8]* @sext_namestr, i32 0, i32 0)), !llfi_injectfault !2
  %16 = load i32* %fi28, align 4, !llfi_index !142
  %fi45 = call i32 @injectFault5(i64 141, i32 %16, i32 27, i32 0, i32 1, i32 0, i8* getelementptr inbounds ([5 x i8]* @load_namestr, i32 0, i32 0)), !llfi_injectfault !2
  %17 = sub nsw i32 %fi45, 2, !llfi_index !143
  %fi47 = call i32 @injectFault5(i64 142, i32 %17, i32 10, i32 0, i32 1, i32 0, i8* getelementptr inbounds ([4 x i8]* @sub_namestr, i32 0, i32 0)), !llfi_injectfault !2
  %18 = sext i32 %fi47 to i64, !llfi_index !144
  %fi48 = call i64 @injectFault6(i64 143, i64 %18, i32 35, i32 0, i32 1, i32 0, i8* getelementptr inbounds ([5 x i8]* @sext_namestr, i32 0, i32 0)), !llfi_injectfault !2
  %19 = call double** @_Z7dmatrixllll(i64 0, i64 %fi44, i64 0, i64 %fi48), !llfi_index !145
  %fi49 = call double** @injectFault8(i64 144, double** %19, i32 49, i32 0, i32 1, i32 0, i8* getelementptr inbounds ([5 x i8]* @call_namestr, i32 0, i32 0)), !llfi_injectfault !2
  store double** %fi49, double*** %fi36, align 8, !llfi_index !146
  %20 = load i32* %fi28, align 4, !llfi_index !147
  %fi50 = call i32 @injectFault5(i64 146, i32 %20, i32 27, i32 0, i32 1, i32 0, i8* getelementptr inbounds ([5 x i8]* @load_namestr, i32 0, i32 0)), !llfi_injectfault !2
  %21 = sub nsw i32 %fi50, 2, !llfi_index !148
  %fi51 = call i32 @injectFault5(i64 147, i32 %21, i32 10, i32 0, i32 1, i32 0, i8* getelementptr inbounds ([4 x i8]* @sub_namestr, i32 0, i32 0)), !llfi_injectfault !2
  %22 = sext i32 %fi51 to i64, !llfi_index !149
  %fi52 = call i64 @injectFault6(i64 148, i64 %22, i32 35, i32 0, i32 1, i32 0, i8* getelementptr inbounds ([5 x i8]* @sext_namestr, i32 0, i32 0)), !llfi_injectfault !2
  %23 = call double* @_Z7dvectorll(i64 0, i64 %fi52), !llfi_index !150
  %fi53 = call double* @injectFault3(i64 149, double* %23, i32 49, i32 0, i32 1, i32 0, i8* getelementptr inbounds ([5 x i8]* @call_namestr, i32 0, i32 0)), !llfi_injectfault !2
  store double* %fi53, double** %fi37, align 8, !llfi_index !151
  %24 = load double** %fi35, align 8, !llfi_index !152
  %fi54 = call double* @injectFault3(i64 151, double* %24, i32 27, i32 0, i32 1, i32 0, i8* getelementptr inbounds ([5 x i8]* @load_namestr, i32 0, i32 0)), !llfi_injectfault !2
  %25 = load i32* %fi28, align 4, !llfi_index !153
  %fi55 = call i32 @injectFault5(i64 152, i32 %25, i32 27, i32 0, i32 1, i32 0, i8* getelementptr inbounds ([5 x i8]* @load_namestr, i32 0, i32 0)), !llfi_injectfault !2
  %26 = load double** %fi31, align 8, !llfi_index !154
  %fi56 = call double* @injectFault3(i64 153, double* %26, i32 27, i32 0, i32 1, i32 0, i8* getelementptr inbounds ([5 x i8]* @load_namestr, i32 0, i32 0)), !llfi_injectfault !2
  %27 = call i32 @_Z20HJM_Yield_to_ForwardPdiS_(double* %fi54, i32 %fi55, double* %fi56), !llfi_index !155
  %fi57 = call i32 @injectFault5(i64 154, i32 %27, i32 49, i32 0, i32 1, i32 0, i8* getelementptr inbounds ([5 x i8]* @call_namestr, i32 0, i32 0)), !llfi_injectfault !2
  store i32 %fi57, i32* %fi34, align 4, !llfi_index !156
  %28 = load i32* %fi34, align 4, !llfi_index !157
  %fi58 = call i32 @injectFault5(i64 156, i32 %28, i32 27, i32 0, i32 1, i32 0, i8* getelementptr inbounds ([5 x i8]* @load_namestr, i32 0, i32 0)), !llfi_injectfault !2
  %29 = icmp ne i32 %fi58, 1, !llfi_index !158
  %fi59 = call i1 @injectFault4(i64 157, i1 %29, i32 46, i32 0, i32 1, i32 0, i8* getelementptr inbounds ([5 x i8]* @icmp_namestr, i32 0, i32 0)), !llfi_injectfault !2
  br i1 %fi59, label %30, label %47, !llfi_index !159

; <label>:30                                      ; preds = %0
  %31 = load double** %fi35, align 8, !llfi_index !160
  %fi60 = call double* @injectFault3(i64 159, double* %31, i32 27, i32 0, i32 1, i32 0, i8* getelementptr inbounds ([5 x i8]* @load_namestr, i32 0, i32 0)), !llfi_injectfault !2
  %32 = load i32* %fi28, align 4, !llfi_index !161
  %fi61 = call i32 @injectFault5(i64 160, i32 %32, i32 27, i32 0, i32 1, i32 0, i8* getelementptr inbounds ([5 x i8]* @load_namestr, i32 0, i32 0)), !llfi_injectfault !2
  %33 = sub nsw i32 %fi61, 1, !llfi_index !162
  %fi46 = call i32 @injectFault5(i64 161, i32 %33, i32 10, i32 0, i32 1, i32 0, i8* getelementptr inbounds ([4 x i8]* @sub_namestr, i32 0, i32 0)), !llfi_injectfault !2
  %34 = sext i32 %fi46 to i64, !llfi_index !163
  %fi65 = call i64 @injectFault6(i64 162, i64 %34, i32 35, i32 0, i32 1, i32 0, i8* getelementptr inbounds ([5 x i8]* @sext_namestr, i32 0, i32 0)), !llfi_injectfault !2
  call void @_Z12free_dvectorPdll(double* %fi60, i64 0, i64 %fi65), !llfi_index !164
  %35 = load double*** %fi36, align 8, !llfi_index !165
  %fi66 = call double** @injectFault8(i64 164, double** %35, i32 27, i32 0, i32 1, i32 0, i8* getelementptr inbounds ([5 x i8]* @load_namestr, i32 0, i32 0)), !llfi_injectfault !2
  %36 = load i32* %fi29, align 4, !llfi_index !166
  %fi67 = call i32 @injectFault5(i64 165, i32 %36, i32 27, i32 0, i32 1, i32 0, i8* getelementptr inbounds ([5 x i8]* @load_namestr, i32 0, i32 0)), !llfi_injectfault !2
  %37 = sub nsw i32 %fi67, 1, !llfi_index !167
  %fi68 = call i32 @injectFault5(i64 166, i32 %37, i32 10, i32 0, i32 1, i32 0, i8* getelementptr inbounds ([4 x i8]* @sub_namestr, i32 0, i32 0)), !llfi_injectfault !2
  %38 = sext i32 %fi68 to i64, !llfi_index !168
  %fi69 = call i64 @injectFault6(i64 167, i64 %38, i32 35, i32 0, i32 1, i32 0, i8* getelementptr inbounds ([5 x i8]* @sext_namestr, i32 0, i32 0)), !llfi_injectfault !2
  %39 = load i32* %fi28, align 4, !llfi_index !169
  %fi70 = call i32 @injectFault5(i64 168, i32 %39, i32 27, i32 0, i32 1, i32 0, i8* getelementptr inbounds ([5 x i8]* @load_namestr, i32 0, i32 0)), !llfi_injectfault !2
  %40 = sub nsw i32 %fi70, 2, !llfi_index !170
  %fi71 = call i32 @injectFault5(i64 169, i32 %40, i32 10, i32 0, i32 1, i32 0, i8* getelementptr inbounds ([4 x i8]* @sub_namestr, i32 0, i32 0)), !llfi_injectfault !2
  %41 = sext i32 %fi71 to i64, !llfi_index !171
  %fi72 = call i64 @injectFault6(i64 170, i64 %41, i32 35, i32 0, i32 1, i32 0, i8* getelementptr inbounds ([5 x i8]* @sext_namestr, i32 0, i32 0)), !llfi_injectfault !2
  call void @_Z12free_dmatrixPPdllll(double** %fi66, i64 0, i64 %fi69, i64 0, i64 %fi72), !llfi_index !172
  %42 = load double** %fi37, align 8, !llfi_index !173
  %fi73 = call double* @injectFault3(i64 172, double* %42, i32 27, i32 0, i32 1, i32 0, i8* getelementptr inbounds ([5 x i8]* @load_namestr, i32 0, i32 0)), !llfi_injectfault !2
  %43 = load i32* %fi28, align 4, !llfi_index !174
  %fi74 = call i32 @injectFault5(i64 173, i32 %43, i32 27, i32 0, i32 1, i32 0, i8* getelementptr inbounds ([5 x i8]* @load_namestr, i32 0, i32 0)), !llfi_injectfault !2
  %44 = sub nsw i32 %fi74, 1, !llfi_index !175
  %fi75 = call i32 @injectFault5(i64 174, i32 %44, i32 10, i32 0, i32 1, i32 0, i8* getelementptr inbounds ([4 x i8]* @sub_namestr, i32 0, i32 0)), !llfi_injectfault !2
  %45 = sext i32 %fi75 to i64, !llfi_index !176
  %fi76 = call i64 @injectFault6(i64 175, i64 %45, i32 35, i32 0, i32 1, i32 0, i8* getelementptr inbounds ([5 x i8]* @sext_namestr, i32 0, i32 0)), !llfi_injectfault !2
  call void @_Z12free_dvectorPdll(double* %fi73, i64 0, i64 %fi76), !llfi_index !177
  %46 = load i32* %fi34, align 4, !llfi_index !178
  %fi77 = call i32 @injectFault5(i64 177, i32 %46, i32 27, i32 0, i32 1, i32 0, i8* getelementptr inbounds ([5 x i8]* @load_namestr, i32 0, i32 0)), !llfi_injectfault !2
  store i32 %fi77, i32* %fi, !llfi_index !179
  br label %120, !llfi_index !180

; <label>:47                                      ; preds = %0
  %48 = load double** %fi37, align 8, !llfi_index !181
  %fi78 = call double* @injectFault3(i64 180, double* %48, i32 27, i32 0, i32 1, i32 0, i8* getelementptr inbounds ([5 x i8]* @load_namestr, i32 0, i32 0)), !llfi_injectfault !2
  %49 = load double*** %fi36, align 8, !llfi_index !182
  %fi79 = call double** @injectFault8(i64 181, double** %49, i32 27, i32 0, i32 1, i32 0, i8* getelementptr inbounds ([5 x i8]* @load_namestr, i32 0, i32 0)), !llfi_injectfault !2
  %50 = load i32* %fi28, align 4, !llfi_index !183
  %fi80 = call i32 @injectFault5(i64 182, i32 %50, i32 27, i32 0, i32 1, i32 0, i8* getelementptr inbounds ([5 x i8]* @load_namestr, i32 0, i32 0)), !llfi_injectfault !2
  %51 = load i32* %fi29, align 4, !llfi_index !184
  %fi81 = call i32 @injectFault5(i64 183, i32 %51, i32 27, i32 0, i32 1, i32 0, i8* getelementptr inbounds ([5 x i8]* @load_namestr, i32 0, i32 0)), !llfi_injectfault !2
  %52 = load double* %fi30, align 8, !llfi_index !185
  %fi82 = call double @injectFault0(i64 184, double %52, i32 27, i32 0, i32 1, i32 0, i8* getelementptr inbounds ([5 x i8]* @load_namestr, i32 0, i32 0)), !llfi_injectfault !2
  %53 = load double*** %fi32, align 8, !llfi_index !186
  %fi83 = call double** @injectFault8(i64 185, double** %53, i32 27, i32 0, i32 1, i32 0, i8* getelementptr inbounds ([5 x i8]* @load_namestr, i32 0, i32 0)), !llfi_injectfault !2
  %54 = call i32 @_Z10HJM_DriftsPdPS_iidS0_(double* %fi78, double** %fi79, i32 %fi80, i32 %fi81, double %fi82, double** %fi83), !llfi_index !187
  %fi84 = call i32 @injectFault5(i64 186, i32 %54, i32 49, i32 0, i32 1, i32 0, i8* getelementptr inbounds ([5 x i8]* @call_namestr, i32 0, i32 0)), !llfi_injectfault !2
  store i32 %fi84, i32* %fi34, align 4, !llfi_index !188
  %55 = load i32* %fi34, align 4, !llfi_index !189
  %fi85 = call i32 @injectFault5(i64 188, i32 %55, i32 27, i32 0, i32 1, i32 0, i8* getelementptr inbounds ([5 x i8]* @load_namestr, i32 0, i32 0)), !llfi_injectfault !2
  %56 = icmp ne i32 %fi85, 1, !llfi_index !190
  %fi86 = call i1 @injectFault4(i64 189, i1 %56, i32 46, i32 0, i32 1, i32 0, i8* getelementptr inbounds ([5 x i8]* @icmp_namestr, i32 0, i32 0)), !llfi_injectfault !2
  br i1 %fi86, label %57, label %74, !llfi_index !191

; <label>:57                                      ; preds = %47
  %58 = load double** %fi35, align 8, !llfi_index !192
  %fi87 = call double* @injectFault3(i64 191, double* %58, i32 27, i32 0, i32 1, i32 0, i8* getelementptr inbounds ([5 x i8]* @load_namestr, i32 0, i32 0)), !llfi_injectfault !2
  %59 = load i32* %fi28, align 4, !llfi_index !193
  %fi88 = call i32 @injectFault5(i64 192, i32 %59, i32 27, i32 0, i32 1, i32 0, i8* getelementptr inbounds ([5 x i8]* @load_namestr, i32 0, i32 0)), !llfi_injectfault !2
  %60 = sub nsw i32 %fi88, 1, !llfi_index !194
  %fi1 = call i32 @injectFault5(i64 193, i32 %60, i32 10, i32 0, i32 1, i32 0, i8* getelementptr inbounds ([4 x i8]* @sub_namestr, i32 0, i32 0)), !llfi_injectfault !2
  %61 = sext i32 %fi1 to i64, !llfi_index !195
  %fi2 = call i64 @injectFault6(i64 194, i64 %61, i32 35, i32 0, i32 1, i32 0, i8* getelementptr inbounds ([5 x i8]* @sext_namestr, i32 0, i32 0)), !llfi_injectfault !2
  call void @_Z12free_dvectorPdll(double* %fi87, i64 0, i64 %fi2), !llfi_index !196
  %62 = load double*** %fi36, align 8, !llfi_index !197
  %fi3 = call double** @injectFault8(i64 196, double** %62, i32 27, i32 0, i32 1, i32 0, i8* getelementptr inbounds ([5 x i8]* @load_namestr, i32 0, i32 0)), !llfi_injectfault !2
  %63 = load i32* %fi29, align 4, !llfi_index !198
  %fi4 = call i32 @injectFault5(i64 197, i32 %63, i32 27, i32 0, i32 1, i32 0, i8* getelementptr inbounds ([5 x i8]* @load_namestr, i32 0, i32 0)), !llfi_injectfault !2
  %64 = sub nsw i32 %fi4, 1, !llfi_index !199
  %fi5 = call i32 @injectFault5(i64 198, i32 %64, i32 10, i32 0, i32 1, i32 0, i8* getelementptr inbounds ([4 x i8]* @sub_namestr, i32 0, i32 0)), !llfi_injectfault !2
  %65 = sext i32 %fi5 to i64, !llfi_index !200
  %fi62 = call i64 @injectFault6(i64 199, i64 %65, i32 35, i32 0, i32 1, i32 0, i8* getelementptr inbounds ([5 x i8]* @sext_namestr, i32 0, i32 0)), !llfi_injectfault !2
  %66 = load i32* %fi28, align 4, !llfi_index !201
  %fi63 = call i32 @injectFault5(i64 200, i32 %66, i32 27, i32 0, i32 1, i32 0, i8* getelementptr inbounds ([5 x i8]* @load_namestr, i32 0, i32 0)), !llfi_injectfault !2
  %67 = sub nsw i32 %fi63, 2, !llfi_index !202
  %fi64 = call i32 @injectFault5(i64 201, i32 %67, i32 10, i32 0, i32 1, i32 0, i8* getelementptr inbounds ([4 x i8]* @sub_namestr, i32 0, i32 0)), !llfi_injectfault !2
  %68 = sext i32 %fi64 to i64, !llfi_index !203
  %fi6 = call i64 @injectFault6(i64 202, i64 %68, i32 35, i32 0, i32 1, i32 0, i8* getelementptr inbounds ([5 x i8]* @sext_namestr, i32 0, i32 0)), !llfi_injectfault !2
  call void @_Z12free_dmatrixPPdllll(double** %fi3, i64 0, i64 %fi62, i64 0, i64 %fi6), !llfi_index !204
  %69 = load double** %fi37, align 8, !llfi_index !205
  %fi7 = call double* @injectFault3(i64 204, double* %69, i32 27, i32 0, i32 1, i32 0, i8* getelementptr inbounds ([5 x i8]* @load_namestr, i32 0, i32 0)), !llfi_injectfault !2
  %70 = load i32* %fi28, align 4, !llfi_index !206
  %fi8 = call i32 @injectFault5(i64 205, i32 %70, i32 27, i32 0, i32 1, i32 0, i8* getelementptr inbounds ([5 x i8]* @load_namestr, i32 0, i32 0)), !llfi_injectfault !2
  %71 = sub nsw i32 %fi8, 1, !llfi_index !207
  %fi9 = call i32 @injectFault5(i64 206, i32 %71, i32 10, i32 0, i32 1, i32 0, i8* getelementptr inbounds ([4 x i8]* @sub_namestr, i32 0, i32 0)), !llfi_injectfault !2
  %72 = sext i32 %fi9 to i64, !llfi_index !208
  %fi10 = call i64 @injectFault6(i64 207, i64 %72, i32 35, i32 0, i32 1, i32 0, i8* getelementptr inbounds ([5 x i8]* @sext_namestr, i32 0, i32 0)), !llfi_injectfault !2
  call void @_Z12free_dvectorPdll(double* %fi7, i64 0, i64 %fi10), !llfi_index !209
  %73 = load i32* %fi34, align 4, !llfi_index !210
  %fi11 = call i32 @injectFault5(i64 209, i32 %73, i32 27, i32 0, i32 1, i32 0, i8* getelementptr inbounds ([5 x i8]* @load_namestr, i32 0, i32 0)), !llfi_injectfault !2
  store i32 %fi11, i32* %fi, !llfi_index !211
  br label %120, !llfi_index !212

; <label>:74                                      ; preds = %47
  %75 = load double*** %fi27, align 8, !llfi_index !213
  %fi12 = call double** @injectFault8(i64 212, double** %75, i32 27, i32 0, i32 1, i32 0, i8* getelementptr inbounds ([5 x i8]* @load_namestr, i32 0, i32 0)), !llfi_injectfault !2
  %76 = load i32* %fi28, align 4, !llfi_index !214
  %fi13 = call i32 @injectFault5(i64 213, i32 %76, i32 27, i32 0, i32 1, i32 0, i8* getelementptr inbounds ([5 x i8]* @load_namestr, i32 0, i32 0)), !llfi_injectfault !2
  %77 = load i32* %fi29, align 4, !llfi_index !215
  %fi14 = call i32 @injectFault5(i64 214, i32 %77, i32 27, i32 0, i32 1, i32 0, i8* getelementptr inbounds ([5 x i8]* @load_namestr, i32 0, i32 0)), !llfi_injectfault !2
  %78 = load double* %fi30, align 8, !llfi_index !216
  %fi15 = call double @injectFault0(i64 215, double %78, i32 27, i32 0, i32 1, i32 0, i8* getelementptr inbounds ([5 x i8]* @load_namestr, i32 0, i32 0)), !llfi_injectfault !2
  %79 = load double** %fi35, align 8, !llfi_index !217
  %fi16 = call double* @injectFault3(i64 216, double* %79, i32 27, i32 0, i32 1, i32 0, i8* getelementptr inbounds ([5 x i8]* @load_namestr, i32 0, i32 0)), !llfi_injectfault !2
  %80 = load double** %fi37, align 8, !llfi_index !218
  %fi17 = call double* @injectFault3(i64 217, double* %80, i32 27, i32 0, i32 1, i32 0, i8* getelementptr inbounds ([5 x i8]* @load_namestr, i32 0, i32 0)), !llfi_injectfault !2
  %81 = load double*** %fi32, align 8, !llfi_index !219
  %fi18 = call double** @injectFault8(i64 218, double** %81, i32 27, i32 0, i32 1, i32 0, i8* getelementptr inbounds ([5 x i8]* @load_namestr, i32 0, i32 0)), !llfi_injectfault !2
  %82 = load i64** %fi33, align 8, !llfi_index !220
  %fi19 = call i64* @injectFault9(i64 219, i64* %82, i32 27, i32 0, i32 1, i32 0, i8* getelementptr inbounds ([5 x i8]* @load_namestr, i32 0, i32 0)), !llfi_injectfault !2
  %83 = call i32 @_Z19HJM_SimPath_ForwardPPdiidS_S_S0_Pl(double** %fi12, i32 %fi13, i32 %fi14, double %fi15, double* %fi16, double* %fi17, double** %fi18, i64* %fi19), !llfi_index !221
  %fi20 = call i32 @injectFault5(i64 220, i32 %83, i32 49, i32 0, i32 1, i32 0, i8* getelementptr inbounds ([5 x i8]* @call_namestr, i32 0, i32 0)), !llfi_injectfault !2
  store i32 %fi20, i32* %fi34, align 4, !llfi_index !222
  %84 = load i32* %fi34, align 4, !llfi_index !223
  %fi21 = call i32 @injectFault5(i64 222, i32 %84, i32 27, i32 0, i32 1, i32 0, i8* getelementptr inbounds ([5 x i8]* @load_namestr, i32 0, i32 0)), !llfi_injectfault !2
  %85 = icmp ne i32 %fi21, 1, !llfi_index !224
  %fi22 = call i1 @injectFault4(i64 223, i1 %85, i32 46, i32 0, i32 1, i32 0, i8* getelementptr inbounds ([5 x i8]* @icmp_namestr, i32 0, i32 0)), !llfi_injectfault !2
  br i1 %fi22, label %86, label %103, !llfi_index !225

; <label>:86                                      ; preds = %74
  %87 = load double** %fi35, align 8, !llfi_index !226
  %fi23 = call double* @injectFault3(i64 225, double* %87, i32 27, i32 0, i32 1, i32 0, i8* getelementptr inbounds ([5 x i8]* @load_namestr, i32 0, i32 0)), !llfi_injectfault !2
  %88 = load i32* %fi28, align 4, !llfi_index !227
  %fi24 = call i32 @injectFault5(i64 226, i32 %88, i32 27, i32 0, i32 1, i32 0, i8* getelementptr inbounds ([5 x i8]* @load_namestr, i32 0, i32 0)), !llfi_injectfault !2
  %89 = sub nsw i32 %fi24, 1, !llfi_index !228
  %fi25 = call i32 @injectFault5(i64 227, i32 %89, i32 10, i32 0, i32 1, i32 0, i8* getelementptr inbounds ([4 x i8]* @sub_namestr, i32 0, i32 0)), !llfi_injectfault !2
  %90 = sext i32 %fi25 to i64, !llfi_index !229
  %fi26 = call i64 @injectFault6(i64 228, i64 %90, i32 35, i32 0, i32 1, i32 0, i8* getelementptr inbounds ([5 x i8]* @sext_namestr, i32 0, i32 0)), !llfi_injectfault !2
  call void @_Z12free_dvectorPdll(double* %fi23, i64 0, i64 %fi26), !llfi_index !230
  %91 = load double*** %fi36, align 8, !llfi_index !231
  %fi89 = call double** @injectFault8(i64 230, double** %91, i32 27, i32 0, i32 1, i32 0, i8* getelementptr inbounds ([5 x i8]* @load_namestr, i32 0, i32 0)), !llfi_injectfault !2
  %92 = load i32* %fi29, align 4, !llfi_index !232
  %fi90 = call i32 @injectFault5(i64 231, i32 %92, i32 27, i32 0, i32 1, i32 0, i8* getelementptr inbounds ([5 x i8]* @load_namestr, i32 0, i32 0)), !llfi_injectfault !2
  %93 = sub nsw i32 %fi90, 1, !llfi_index !233
  %fi91 = call i32 @injectFault5(i64 232, i32 %93, i32 10, i32 0, i32 1, i32 0, i8* getelementptr inbounds ([4 x i8]* @sub_namestr, i32 0, i32 0)), !llfi_injectfault !2
  %94 = sext i32 %fi91 to i64, !llfi_index !234
  %fi92 = call i64 @injectFault6(i64 233, i64 %94, i32 35, i32 0, i32 1, i32 0, i8* getelementptr inbounds ([5 x i8]* @sext_namestr, i32 0, i32 0)), !llfi_injectfault !2
  %95 = load i32* %fi28, align 4, !llfi_index !235
  %fi93 = call i32 @injectFault5(i64 234, i32 %95, i32 27, i32 0, i32 1, i32 0, i8* getelementptr inbounds ([5 x i8]* @load_namestr, i32 0, i32 0)), !llfi_injectfault !2
  %96 = sub nsw i32 %fi93, 2, !llfi_index !236
  %fi94 = call i32 @injectFault5(i64 235, i32 %96, i32 10, i32 0, i32 1, i32 0, i8* getelementptr inbounds ([4 x i8]* @sub_namestr, i32 0, i32 0)), !llfi_injectfault !2
  %97 = sext i32 %fi94 to i64, !llfi_index !237
  %fi95 = call i64 @injectFault6(i64 236, i64 %97, i32 35, i32 0, i32 1, i32 0, i8* getelementptr inbounds ([5 x i8]* @sext_namestr, i32 0, i32 0)), !llfi_injectfault !2
  call void @_Z12free_dmatrixPPdllll(double** %fi89, i64 0, i64 %fi92, i64 0, i64 %fi95), !llfi_index !238
  %98 = load double** %fi37, align 8, !llfi_index !239
  %fi96 = call double* @injectFault3(i64 238, double* %98, i32 27, i32 0, i32 1, i32 0, i8* getelementptr inbounds ([5 x i8]* @load_namestr, i32 0, i32 0)), !llfi_injectfault !2
  %99 = load i32* %fi28, align 4, !llfi_index !240
  %fi97 = call i32 @injectFault5(i64 239, i32 %99, i32 27, i32 0, i32 1, i32 0, i8* getelementptr inbounds ([5 x i8]* @load_namestr, i32 0, i32 0)), !llfi_injectfault !2
  %100 = sub nsw i32 %fi97, 1, !llfi_index !241
  %fi98 = call i32 @injectFault5(i64 240, i32 %100, i32 10, i32 0, i32 1, i32 0, i8* getelementptr inbounds ([4 x i8]* @sub_namestr, i32 0, i32 0)), !llfi_injectfault !2
  %101 = sext i32 %fi98 to i64, !llfi_index !242
  %fi99 = call i64 @injectFault6(i64 241, i64 %101, i32 35, i32 0, i32 1, i32 0, i8* getelementptr inbounds ([5 x i8]* @sext_namestr, i32 0, i32 0)), !llfi_injectfault !2
  call void @_Z12free_dvectorPdll(double* %fi96, i64 0, i64 %fi99), !llfi_index !243
  %102 = load i32* %fi34, align 4, !llfi_index !244
  %fi100 = call i32 @injectFault5(i64 243, i32 %102, i32 27, i32 0, i32 1, i32 0, i8* getelementptr inbounds ([5 x i8]* @load_namestr, i32 0, i32 0)), !llfi_injectfault !2
  store i32 %fi100, i32* %fi, !llfi_index !245
  br label %120, !llfi_index !246

; <label>:103                                     ; preds = %74
  %104 = load double** %fi35, align 8, !llfi_index !247
  %fi101 = call double* @injectFault3(i64 246, double* %104, i32 27, i32 0, i32 1, i32 0, i8* getelementptr inbounds ([5 x i8]* @load_namestr, i32 0, i32 0)), !llfi_injectfault !2
  %105 = load i32* %fi28, align 4, !llfi_index !248
  %fi102 = call i32 @injectFault5(i64 247, i32 %105, i32 27, i32 0, i32 1, i32 0, i8* getelementptr inbounds ([5 x i8]* @load_namestr, i32 0, i32 0)), !llfi_injectfault !2
  %106 = sub nsw i32 %fi102, 1, !llfi_index !249
  %fi103 = call i32 @injectFault5(i64 248, i32 %106, i32 10, i32 0, i32 1, i32 0, i8* getelementptr inbounds ([4 x i8]* @sub_namestr, i32 0, i32 0)), !llfi_injectfault !2
  %107 = sext i32 %fi103 to i64, !llfi_index !250
  %fi104 = call i64 @injectFault6(i64 249, i64 %107, i32 35, i32 0, i32 1, i32 0, i8* getelementptr inbounds ([5 x i8]* @sext_namestr, i32 0, i32 0)), !llfi_injectfault !2
  call void @_Z12free_dvectorPdll(double* %fi101, i64 0, i64 %fi104), !llfi_index !251
  %108 = load double*** %fi36, align 8, !llfi_index !252
  %fi105 = call double** @injectFault8(i64 251, double** %108, i32 27, i32 0, i32 1, i32 0, i8* getelementptr inbounds ([5 x i8]* @load_namestr, i32 0, i32 0)), !llfi_injectfault !2
  %109 = load i32* %fi29, align 4, !llfi_index !253
  %fi106 = call i32 @injectFault5(i64 252, i32 %109, i32 27, i32 0, i32 1, i32 0, i8* getelementptr inbounds ([5 x i8]* @load_namestr, i32 0, i32 0)), !llfi_injectfault !2
  %110 = sub nsw i32 %fi106, 1, !llfi_index !254
  %fi107 = call i32 @injectFault5(i64 253, i32 %110, i32 10, i32 0, i32 1, i32 0, i8* getelementptr inbounds ([4 x i8]* @sub_namestr, i32 0, i32 0)), !llfi_injectfault !2
  %111 = sext i32 %fi107 to i64, !llfi_index !255
  %fi108 = call i64 @injectFault6(i64 254, i64 %111, i32 35, i32 0, i32 1, i32 0, i8* getelementptr inbounds ([5 x i8]* @sext_namestr, i32 0, i32 0)), !llfi_injectfault !2
  %112 = load i32* %fi28, align 4, !llfi_index !256
  %fi109 = call i32 @injectFault5(i64 255, i32 %112, i32 27, i32 0, i32 1, i32 0, i8* getelementptr inbounds ([5 x i8]* @load_namestr, i32 0, i32 0)), !llfi_injectfault !2
  %113 = sub nsw i32 %fi109, 2, !llfi_index !257
  %fi110 = call i32 @injectFault5(i64 256, i32 %113, i32 10, i32 0, i32 1, i32 0, i8* getelementptr inbounds ([4 x i8]* @sub_namestr, i32 0, i32 0)), !llfi_injectfault !2
  %114 = sext i32 %fi110 to i64, !llfi_index !258
  %fi111 = call i64 @injectFault6(i64 257, i64 %114, i32 35, i32 0, i32 1, i32 0, i8* getelementptr inbounds ([5 x i8]* @sext_namestr, i32 0, i32 0)), !llfi_injectfault !2
  call void @_Z12free_dmatrixPPdllll(double** %fi105, i64 0, i64 %fi108, i64 0, i64 %fi111), !llfi_index !259
  %115 = load double** %fi37, align 8, !llfi_index !260
  %fi112 = call double* @injectFault3(i64 259, double* %115, i32 27, i32 0, i32 1, i32 0, i8* getelementptr inbounds ([5 x i8]* @load_namestr, i32 0, i32 0)), !llfi_injectfault !2
  %116 = load i32* %fi28, align 4, !llfi_index !261
  %fi113 = call i32 @injectFault5(i64 260, i32 %116, i32 27, i32 0, i32 1, i32 0, i8* getelementptr inbounds ([5 x i8]* @load_namestr, i32 0, i32 0)), !llfi_injectfault !2
  %117 = sub nsw i32 %fi113, 1, !llfi_index !262
  %fi114 = call i32 @injectFault5(i64 261, i32 %117, i32 10, i32 0, i32 1, i32 0, i8* getelementptr inbounds ([4 x i8]* @sub_namestr, i32 0, i32 0)), !llfi_injectfault !2
  %118 = sext i32 %fi114 to i64, !llfi_index !263
  %fi115 = call i64 @injectFault6(i64 262, i64 %118, i32 35, i32 0, i32 1, i32 0, i8* getelementptr inbounds ([5 x i8]* @sext_namestr, i32 0, i32 0)), !llfi_injectfault !2
  call void @_Z12free_dvectorPdll(double* %fi112, i64 0, i64 %fi115), !llfi_index !264
  store i32 1, i32* %fi34, align 4, !llfi_index !265
  %119 = load i32* %fi34, align 4, !llfi_index !266
  %fi116 = call i32 @injectFault5(i64 265, i32 %119, i32 27, i32 0, i32 1, i32 0, i8* getelementptr inbounds ([5 x i8]* @load_namestr, i32 0, i32 0)), !llfi_injectfault !2
  store i32 %fi116, i32* %fi, !llfi_index !267
  br label %120, !llfi_index !268

; <label>:120                                     ; preds = %103, %86, %57, %30
  %121 = load i32* %fi, !llfi_index !269
  %fi117 = call i32 @injectFault5(i64 268, i32 %121, i32 27, i32 0, i32 1, i32 0, i8* getelementptr inbounds ([5 x i8]* @load_namestr, i32 0, i32 0)), !llfi_injectfault !2
  ret i32 %fi117, !llfi_index !270
}

; Function Attrs: nounwind uwtable
define i32 @_Z20HJM_Yield_to_ForwardPdiS_(double* %pdForward, i32 %iN, double* %pdYield) #0 {
  %1 = alloca double*, align 8, !llfi_index !271
  %fi = call double** @injectFault8(i64 270, double** %1, i32 26, i32 0, i32 1, i32 0, i8* getelementptr inbounds ([7 x i8]* @alloca_namestr, i32 0, i32 0)), !llfi_injectfault !2
  %2 = alloca i32, align 4, !llfi_index !272
  %fi1 = call i32* @injectFault2(i64 271, i32* %2, i32 26, i32 0, i32 1, i32 0, i8* getelementptr inbounds ([7 x i8]* @alloca_namestr, i32 0, i32 0)), !llfi_injectfault !2
  %3 = alloca double*, align 8, !llfi_index !273
  %fi2 = call double** @injectFault8(i64 272, double** %3, i32 26, i32 0, i32 1, i32 0, i8* getelementptr inbounds ([7 x i8]* @alloca_namestr, i32 0, i32 0)), !llfi_injectfault !2
  %iSuccess = alloca i32, align 4, !llfi_index !274
  %fi3 = call i32* @injectFault2(i64 273, i32* %iSuccess, i32 26, i32 0, i32 1, i32 0, i8* getelementptr inbounds ([7 x i8]* @alloca_namestr, i32 0, i32 0)), !llfi_injectfault !2
  %i = alloca i32, align 4, !llfi_index !275
  %fi4 = call i32* @injectFault2(i64 274, i32* %i, i32 26, i32 0, i32 1, i32 0, i8* getelementptr inbounds ([7 x i8]* @alloca_namestr, i32 0, i32 0)), !llfi_injectfault !2
  store double* %pdForward, double** %fi, align 8, !llfi_index !276
  store i32 %iN, i32* %fi1, align 4, !llfi_index !277
  store double* %pdYield, double** %fi2, align 8, !llfi_index !278
  store i32 0, i32* %fi3, align 4, !llfi_index !279
  %4 = load double** %fi2, align 8, !llfi_index !280
  %fi5 = call double* @injectFault3(i64 279, double* %4, i32 27, i32 0, i32 1, i32 0, i8* getelementptr inbounds ([5 x i8]* @load_namestr, i32 0, i32 0)), !llfi_injectfault !2
  %5 = getelementptr double* %fi5, i64 0, !llfi_index !281
  %fi6 = call double* @injectFault3(i64 280, double* %5, i32 29, i32 0, i32 1, i32 0, i8* getelementptr inbounds ([14 x i8]* @getelementptr_namestr, i32 0, i32 0)), !llfi_injectfault !2
  %6 = load double* %fi6, align 8, !llfi_index !282
  %fi7 = call double @injectFault0(i64 281, double %6, i32 27, i32 0, i32 1, i32 0, i8* getelementptr inbounds ([5 x i8]* @load_namestr, i32 0, i32 0)), !llfi_injectfault !2
  %7 = load double** %fi, align 8, !llfi_index !283
  %fi8 = call double* @injectFault3(i64 282, double* %7, i32 27, i32 0, i32 1, i32 0, i8* getelementptr inbounds ([5 x i8]* @load_namestr, i32 0, i32 0)), !llfi_injectfault !2
  %8 = getelementptr double* %fi8, i64 0, !llfi_index !284
  %fi9 = call double* @injectFault3(i64 283, double* %8, i32 29, i32 0, i32 1, i32 0, i8* getelementptr inbounds ([14 x i8]* @getelementptr_namestr, i32 0, i32 0)), !llfi_injectfault !2
  store double %fi7, double* %fi9, align 8, !llfi_index !285
  store i32 1, i32* %fi4, align 4, !llfi_index !286
  br label %9, !llfi_index !287

; <label>:9                                       ; preds = %38, %0
  %10 = load i32* %fi4, align 4, !llfi_index !288
  %fi11 = call i32 @injectFault5(i64 287, i32 %10, i32 27, i32 0, i32 1, i32 0, i8* getelementptr inbounds ([5 x i8]* @load_namestr, i32 0, i32 0)), !llfi_injectfault !2
  %11 = load i32* %fi1, align 4, !llfi_index !289
  %fi12 = call i32 @injectFault5(i64 288, i32 %11, i32 27, i32 0, i32 1, i32 0, i8* getelementptr inbounds ([5 x i8]* @load_namestr, i32 0, i32 0)), !llfi_injectfault !2
  %12 = sub nsw i32 %fi12, 1, !llfi_index !290
  %fi13 = call i32 @injectFault5(i64 289, i32 %12, i32 10, i32 0, i32 1, i32 0, i8* getelementptr inbounds ([4 x i8]* @sub_namestr, i32 0, i32 0)), !llfi_injectfault !2
  %13 = icmp sle i32 %fi11, %fi13, !llfi_index !291
  %fi14 = call i1 @injectFault4(i64 290, i1 %13, i32 46, i32 0, i32 1, i32 0, i8* getelementptr inbounds ([5 x i8]* @icmp_namestr, i32 0, i32 0)), !llfi_injectfault !2
  br i1 %fi14, label %14, label %41, !llfi_index !292

; <label>:14                                      ; preds = %9
  %15 = load i32* %fi4, align 4, !llfi_index !293
  %fi15 = call i32 @injectFault5(i64 292, i32 %15, i32 27, i32 0, i32 1, i32 0, i8* getelementptr inbounds ([5 x i8]* @load_namestr, i32 0, i32 0)), !llfi_injectfault !2
  %16 = add nsw i32 %fi15, 1, !llfi_index !294
  %fi16 = call i32 @injectFault5(i64 293, i32 %16, i32 8, i32 0, i32 1, i32 0, i8* getelementptr inbounds ([4 x i8]* @add_namestr, i32 0, i32 0)), !llfi_injectfault !2
  %17 = sitofp i32 %fi16 to double, !llfi_index !295
  %fi10 = call double @injectFault0(i64 294, double %17, i32 39, i32 0, i32 1, i32 0, i8* getelementptr inbounds ([7 x i8]* @sitofp_namestr, i32 0, i32 0)), !llfi_injectfault !2
  %18 = load i32* %fi4, align 4, !llfi_index !296
  %fi18 = call i32 @injectFault5(i64 295, i32 %18, i32 27, i32 0, i32 1, i32 0, i8* getelementptr inbounds ([5 x i8]* @load_namestr, i32 0, i32 0)), !llfi_injectfault !2
  %19 = sext i32 %fi18 to i64, !llfi_index !297
  %fi19 = call i64 @injectFault6(i64 296, i64 %19, i32 35, i32 0, i32 1, i32 0, i8* getelementptr inbounds ([5 x i8]* @sext_namestr, i32 0, i32 0)), !llfi_injectfault !2
  %20 = load double** %fi2, align 8, !llfi_index !298
  %fi20 = call double* @injectFault3(i64 297, double* %20, i32 27, i32 0, i32 1, i32 0, i8* getelementptr inbounds ([5 x i8]* @load_namestr, i32 0, i32 0)), !llfi_injectfault !2
  %21 = getelementptr double* %fi20, i64 %fi19, !llfi_index !299
  %fi21 = call double* @injectFault3(i64 298, double* %21, i32 29, i32 0, i32 1, i32 0, i8* getelementptr inbounds ([14 x i8]* @getelementptr_namestr, i32 0, i32 0)), !llfi_injectfault !2
  %22 = load double* %fi21, align 8, !llfi_index !300
  %fi22 = call double @injectFault0(i64 299, double %22, i32 27, i32 0, i32 1, i32 0, i8* getelementptr inbounds ([5 x i8]* @load_namestr, i32 0, i32 0)), !llfi_injectfault !2
  %23 = fmul double %fi10, %fi22, !llfi_index !301
  %fi23 = call double @injectFault0(i64 300, double %23, i32 13, i32 0, i32 1, i32 0, i8* getelementptr inbounds ([5 x i8]* @fmul_namestr, i32 0, i32 0)), !llfi_injectfault !2
  %24 = load i32* %fi4, align 4, !llfi_index !302
  %fi24 = call i32 @injectFault5(i64 301, i32 %24, i32 27, i32 0, i32 1, i32 0, i8* getelementptr inbounds ([5 x i8]* @load_namestr, i32 0, i32 0)), !llfi_injectfault !2
  %25 = sitofp i32 %fi24 to double, !llfi_index !303
  %fi25 = call double @injectFault0(i64 302, double %25, i32 39, i32 0, i32 1, i32 0, i8* getelementptr inbounds ([7 x i8]* @sitofp_namestr, i32 0, i32 0)), !llfi_injectfault !2
  %26 = load i32* %fi4, align 4, !llfi_index !304
  %fi26 = call i32 @injectFault5(i64 303, i32 %26, i32 27, i32 0, i32 1, i32 0, i8* getelementptr inbounds ([5 x i8]* @load_namestr, i32 0, i32 0)), !llfi_injectfault !2
  %27 = sub nsw i32 %fi26, 1, !llfi_index !305
  %fi27 = call i32 @injectFault5(i64 304, i32 %27, i32 10, i32 0, i32 1, i32 0, i8* getelementptr inbounds ([4 x i8]* @sub_namestr, i32 0, i32 0)), !llfi_injectfault !2
  %28 = sext i32 %fi27 to i64, !llfi_index !306
  %fi28 = call i64 @injectFault6(i64 305, i64 %28, i32 35, i32 0, i32 1, i32 0, i8* getelementptr inbounds ([5 x i8]* @sext_namestr, i32 0, i32 0)), !llfi_injectfault !2
  %29 = load double** %fi2, align 8, !llfi_index !307
  %fi29 = call double* @injectFault3(i64 306, double* %29, i32 27, i32 0, i32 1, i32 0, i8* getelementptr inbounds ([5 x i8]* @load_namestr, i32 0, i32 0)), !llfi_injectfault !2
  %30 = getelementptr double* %fi29, i64 %fi28, !llfi_index !308
  %fi30 = call double* @injectFault3(i64 307, double* %30, i32 29, i32 0, i32 1, i32 0, i8* getelementptr inbounds ([14 x i8]* @getelementptr_namestr, i32 0, i32 0)), !llfi_injectfault !2
  %31 = load double* %fi30, align 8, !llfi_index !309
  %fi31 = call double @injectFault0(i64 308, double %31, i32 27, i32 0, i32 1, i32 0, i8* getelementptr inbounds ([5 x i8]* @load_namestr, i32 0, i32 0)), !llfi_injectfault !2
  %32 = fmul double %fi25, %fi31, !llfi_index !310
  %fi32 = call double @injectFault0(i64 309, double %32, i32 13, i32 0, i32 1, i32 0, i8* getelementptr inbounds ([5 x i8]* @fmul_namestr, i32 0, i32 0)), !llfi_injectfault !2
  %33 = fsub double %fi23, %fi32, !llfi_index !311
  %fi17 = call double @injectFault0(i64 310, double %33, i32 11, i32 0, i32 1, i32 0, i8* getelementptr inbounds ([5 x i8]* @fsub_namestr, i32 0, i32 0)), !llfi_injectfault !2
  %34 = load i32* %fi4, align 4, !llfi_index !312
  %fi33 = call i32 @injectFault5(i64 311, i32 %34, i32 27, i32 0, i32 1, i32 0, i8* getelementptr inbounds ([5 x i8]* @load_namestr, i32 0, i32 0)), !llfi_injectfault !2
  %35 = sext i32 %fi33 to i64, !llfi_index !313
  %fi34 = call i64 @injectFault6(i64 312, i64 %35, i32 35, i32 0, i32 1, i32 0, i8* getelementptr inbounds ([5 x i8]* @sext_namestr, i32 0, i32 0)), !llfi_injectfault !2
  %36 = load double** %fi, align 8, !llfi_index !314
  %fi35 = call double* @injectFault3(i64 313, double* %36, i32 27, i32 0, i32 1, i32 0, i8* getelementptr inbounds ([5 x i8]* @load_namestr, i32 0, i32 0)), !llfi_injectfault !2
  %37 = getelementptr double* %fi35, i64 %fi34, !llfi_index !315
  %fi36 = call double* @injectFault3(i64 314, double* %37, i32 29, i32 0, i32 1, i32 0, i8* getelementptr inbounds ([14 x i8]* @getelementptr_namestr, i32 0, i32 0)), !llfi_injectfault !2
  store double %fi17, double* %fi36, align 8, !llfi_index !316
  br label %38, !llfi_index !317

; <label>:38                                      ; preds = %14
  %39 = load i32* %fi4, align 4, !llfi_index !318
  %fi37 = call i32 @injectFault5(i64 317, i32 %39, i32 27, i32 0, i32 1, i32 0, i8* getelementptr inbounds ([5 x i8]* @load_namestr, i32 0, i32 0)), !llfi_injectfault !2
  %40 = add nsw i32 %fi37, 1, !llfi_index !319
  %fi38 = call i32 @injectFault5(i64 318, i32 %40, i32 8, i32 0, i32 1, i32 0, i8* getelementptr inbounds ([4 x i8]* @add_namestr, i32 0, i32 0)), !llfi_injectfault !2
  store i32 %fi38, i32* %fi4, align 4, !llfi_index !320
  br label %9, !llfi_index !321

; <label>:41                                      ; preds = %9
  store i32 1, i32* %fi3, align 4, !llfi_index !322
  %42 = load i32* %fi3, align 4, !llfi_index !323
  %fi39 = call i32 @injectFault5(i64 322, i32 %42, i32 27, i32 0, i32 1, i32 0, i8* getelementptr inbounds ([5 x i8]* @load_namestr, i32 0, i32 0)), !llfi_injectfault !2
  ret i32 %fi39, !llfi_index !324
}

; Function Attrs: nounwind uwtable
define i32 @_Z10HJM_DriftsPdPS_iidS0_(double* %pdTotalDrift, double** %ppdDrifts, i32 %iN, i32 %iFactors, double %dYears, double** %ppdFactors) #0 {
  %1 = alloca double*, align 8, !llfi_index !325
  %fi66 = call double** @injectFault8(i64 324, double** %1, i32 26, i32 0, i32 1, i32 0, i8* getelementptr inbounds ([7 x i8]* @alloca_namestr, i32 0, i32 0)), !llfi_injectfault !2
  %2 = alloca double**, align 8, !llfi_index !326
  %fi67 = call double*** @injectFault1(i64 325, double*** %2, i32 26, i32 0, i32 1, i32 0, i8* getelementptr inbounds ([7 x i8]* @alloca_namestr, i32 0, i32 0)), !llfi_injectfault !2
  %3 = alloca i32, align 4, !llfi_index !327
  %fi68 = call i32* @injectFault2(i64 326, i32* %3, i32 26, i32 0, i32 1, i32 0, i8* getelementptr inbounds ([7 x i8]* @alloca_namestr, i32 0, i32 0)), !llfi_injectfault !2
  %4 = alloca i32, align 4, !llfi_index !328
  %fi69 = call i32* @injectFault2(i64 327, i32* %4, i32 26, i32 0, i32 1, i32 0, i8* getelementptr inbounds ([7 x i8]* @alloca_namestr, i32 0, i32 0)), !llfi_injectfault !2
  %5 = alloca double, align 8, !llfi_index !329
  %fi70 = call double* @injectFault3(i64 328, double* %5, i32 26, i32 0, i32 1, i32 0, i8* getelementptr inbounds ([7 x i8]* @alloca_namestr, i32 0, i32 0)), !llfi_injectfault !2
  %6 = alloca double**, align 8, !llfi_index !330
  %fi71 = call double*** @injectFault1(i64 329, double*** %6, i32 26, i32 0, i32 1, i32 0, i8* getelementptr inbounds ([7 x i8]* @alloca_namestr, i32 0, i32 0)), !llfi_injectfault !2
  %iSuccess = alloca i32, align 4, !llfi_index !331
  %fi72 = call i32* @injectFault2(i64 330, i32* %iSuccess, i32 26, i32 0, i32 1, i32 0, i8* getelementptr inbounds ([7 x i8]* @alloca_namestr, i32 0, i32 0)), !llfi_injectfault !2
  %i = alloca i32, align 4, !llfi_index !332
  %fi73 = call i32* @injectFault2(i64 331, i32* %i, i32 26, i32 0, i32 1, i32 0, i8* getelementptr inbounds ([7 x i8]* @alloca_namestr, i32 0, i32 0)), !llfi_injectfault !2
  %j = alloca i32, align 4, !llfi_index !333
  %fi74 = call i32* @injectFault2(i64 332, i32* %j, i32 26, i32 0, i32 1, i32 0, i8* getelementptr inbounds ([7 x i8]* @alloca_namestr, i32 0, i32 0)), !llfi_injectfault !2
  %l = alloca i32, align 4, !llfi_index !334
  %fi75 = call i32* @injectFault2(i64 333, i32* %l, i32 26, i32 0, i32 1, i32 0, i8* getelementptr inbounds ([7 x i8]* @alloca_namestr, i32 0, i32 0)), !llfi_injectfault !2
  %ddelt = alloca double, align 8, !llfi_index !335
  %fi76 = call double* @injectFault3(i64 334, double* %ddelt, i32 26, i32 0, i32 1, i32 0, i8* getelementptr inbounds ([7 x i8]* @alloca_namestr, i32 0, i32 0)), !llfi_injectfault !2
  %dSumVol = alloca double, align 8, !llfi_index !336
  %fi77 = call double* @injectFault3(i64 335, double* %dSumVol, i32 26, i32 0, i32 1, i32 0, i8* getelementptr inbounds ([7 x i8]* @alloca_namestr, i32 0, i32 0)), !llfi_injectfault !2
  store double* %pdTotalDrift, double** %fi66, align 8, !llfi_index !337
  store double** %ppdDrifts, double*** %fi67, align 8, !llfi_index !338
  store i32 %iN, i32* %fi68, align 4, !llfi_index !339
  store i32 %iFactors, i32* %fi69, align 4, !llfi_index !340
  store double %dYears, double* %fi70, align 8, !llfi_index !341
  store double** %ppdFactors, double*** %fi71, align 8, !llfi_index !342
  store i32 0, i32* %fi72, align 4, !llfi_index !343
  %7 = load double* %fi70, align 8, !llfi_index !344
  %fi78 = call double @injectFault0(i64 343, double %7, i32 27, i32 0, i32 1, i32 0, i8* getelementptr inbounds ([5 x i8]* @load_namestr, i32 0, i32 0)), !llfi_injectfault !2
  %8 = load i32* %fi68, align 4, !llfi_index !345
  %fi79 = call i32 @injectFault5(i64 344, i32 %8, i32 27, i32 0, i32 1, i32 0, i8* getelementptr inbounds ([5 x i8]* @load_namestr, i32 0, i32 0)), !llfi_injectfault !2
  %9 = sitofp i32 %fi79 to double, !llfi_index !346
  %fi81 = call double @injectFault0(i64 345, double %9, i32 39, i32 0, i32 1, i32 0, i8* getelementptr inbounds ([7 x i8]* @sitofp_namestr, i32 0, i32 0)), !llfi_injectfault !2
  %10 = fdiv double %fi78, %fi81, !llfi_index !347
  %fi82 = call double @injectFault0(i64 346, double %10, i32 16, i32 0, i32 1, i32 0, i8* getelementptr inbounds ([5 x i8]* @fdiv_namestr, i32 0, i32 0)), !llfi_injectfault !2
  store double %fi82, double* %fi76, align 8, !llfi_index !348
  store i32 0, i32* %fi73, align 4, !llfi_index !349
  br label %11, !llfi_index !350

; <label>:11                                      ; preds = %41, %0
  %12 = load i32* %fi73, align 4, !llfi_index !351
  %fi83 = call i32 @injectFault5(i64 350, i32 %12, i32 27, i32 0, i32 1, i32 0, i8* getelementptr inbounds ([5 x i8]* @load_namestr, i32 0, i32 0)), !llfi_injectfault !2
  %13 = load i32* %fi69, align 4, !llfi_index !352
  %fi84 = call i32 @injectFault5(i64 351, i32 %13, i32 27, i32 0, i32 1, i32 0, i8* getelementptr inbounds ([5 x i8]* @load_namestr, i32 0, i32 0)), !llfi_injectfault !2
  %14 = sub nsw i32 %fi84, 1, !llfi_index !353
  %fi85 = call i32 @injectFault5(i64 352, i32 %14, i32 10, i32 0, i32 1, i32 0, i8* getelementptr inbounds ([4 x i8]* @sub_namestr, i32 0, i32 0)), !llfi_injectfault !2
  %15 = icmp sle i32 %fi83, %fi85, !llfi_index !354
  %fi86 = call i1 @injectFault4(i64 353, i1 %15, i32 46, i32 0, i32 1, i32 0, i8* getelementptr inbounds ([5 x i8]* @icmp_namestr, i32 0, i32 0)), !llfi_injectfault !2
  br i1 %fi86, label %16, label %44, !llfi_index !355

; <label>:16                                      ; preds = %11
  %17 = load double* %fi76, align 8, !llfi_index !356
  %fi80 = call double @injectFault0(i64 355, double %17, i32 27, i32 0, i32 1, i32 0, i8* getelementptr inbounds ([5 x i8]* @load_namestr, i32 0, i32 0)), !llfi_injectfault !2
  %18 = fmul double 5.000000e-01, %fi80, !llfi_index !357
  %fi88 = call double @injectFault0(i64 356, double %18, i32 13, i32 0, i32 1, i32 0, i8* getelementptr inbounds ([5 x i8]* @fmul_namestr, i32 0, i32 0)), !llfi_injectfault !2
  %19 = load i32* %fi73, align 4, !llfi_index !358
  %fi89 = call i32 @injectFault5(i64 357, i32 %19, i32 27, i32 0, i32 1, i32 0, i8* getelementptr inbounds ([5 x i8]* @load_namestr, i32 0, i32 0)), !llfi_injectfault !2
  %20 = sext i32 %fi89 to i64, !llfi_index !359
  %fi90 = call i64 @injectFault6(i64 358, i64 %20, i32 35, i32 0, i32 1, i32 0, i8* getelementptr inbounds ([5 x i8]* @sext_namestr, i32 0, i32 0)), !llfi_injectfault !2
  %21 = load double*** %fi71, align 8, !llfi_index !360
  %fi91 = call double** @injectFault8(i64 359, double** %21, i32 27, i32 0, i32 1, i32 0, i8* getelementptr inbounds ([5 x i8]* @load_namestr, i32 0, i32 0)), !llfi_injectfault !2
  %22 = getelementptr double** %fi91, i64 %fi90, !llfi_index !361
  %fi92 = call double** @injectFault8(i64 360, double** %22, i32 29, i32 0, i32 1, i32 0, i8* getelementptr inbounds ([14 x i8]* @getelementptr_namestr, i32 0, i32 0)), !llfi_injectfault !2
  %23 = load double** %fi92, align 8, !llfi_index !362
  %fi93 = call double* @injectFault3(i64 361, double* %23, i32 27, i32 0, i32 1, i32 0, i8* getelementptr inbounds ([5 x i8]* @load_namestr, i32 0, i32 0)), !llfi_injectfault !2
  %24 = getelementptr double* %fi93, i64 0, !llfi_index !363
  %fi94 = call double* @injectFault3(i64 362, double* %24, i32 29, i32 0, i32 1, i32 0, i8* getelementptr inbounds ([14 x i8]* @getelementptr_namestr, i32 0, i32 0)), !llfi_injectfault !2
  %25 = load double* %fi94, align 8, !llfi_index !364
  %fi95 = call double @injectFault0(i64 363, double %25, i32 27, i32 0, i32 1, i32 0, i8* getelementptr inbounds ([5 x i8]* @load_namestr, i32 0, i32 0)), !llfi_injectfault !2
  %26 = fmul double %fi88, %fi95, !llfi_index !365
  %fi96 = call double @injectFault0(i64 364, double %26, i32 13, i32 0, i32 1, i32 0, i8* getelementptr inbounds ([5 x i8]* @fmul_namestr, i32 0, i32 0)), !llfi_injectfault !2
  %27 = load i32* %fi73, align 4, !llfi_index !366
  %fi97 = call i32 @injectFault5(i64 365, i32 %27, i32 27, i32 0, i32 1, i32 0, i8* getelementptr inbounds ([5 x i8]* @load_namestr, i32 0, i32 0)), !llfi_injectfault !2
  %28 = sext i32 %fi97 to i64, !llfi_index !367
  %fi98 = call i64 @injectFault6(i64 366, i64 %28, i32 35, i32 0, i32 1, i32 0, i8* getelementptr inbounds ([5 x i8]* @sext_namestr, i32 0, i32 0)), !llfi_injectfault !2
  %29 = load double*** %fi71, align 8, !llfi_index !368
  %fi99 = call double** @injectFault8(i64 367, double** %29, i32 27, i32 0, i32 1, i32 0, i8* getelementptr inbounds ([5 x i8]* @load_namestr, i32 0, i32 0)), !llfi_injectfault !2
  %30 = getelementptr double** %fi99, i64 %fi98, !llfi_index !369
  %fi100 = call double** @injectFault8(i64 368, double** %30, i32 29, i32 0, i32 1, i32 0, i8* getelementptr inbounds ([14 x i8]* @getelementptr_namestr, i32 0, i32 0)), !llfi_injectfault !2
  %31 = load double** %fi100, align 8, !llfi_index !370
  %fi101 = call double* @injectFault3(i64 369, double* %31, i32 27, i32 0, i32 1, i32 0, i8* getelementptr inbounds ([5 x i8]* @load_namestr, i32 0, i32 0)), !llfi_injectfault !2
  %32 = getelementptr double* %fi101, i64 0, !llfi_index !371
  %fi102 = call double* @injectFault3(i64 370, double* %32, i32 29, i32 0, i32 1, i32 0, i8* getelementptr inbounds ([14 x i8]* @getelementptr_namestr, i32 0, i32 0)), !llfi_injectfault !2
  %33 = load double* %fi102, align 8, !llfi_index !372
  %fi87 = call double @injectFault0(i64 371, double %33, i32 27, i32 0, i32 1, i32 0, i8* getelementptr inbounds ([5 x i8]* @load_namestr, i32 0, i32 0)), !llfi_injectfault !2
  %34 = fmul double %fi96, %fi87, !llfi_index !373
  %fi103 = call double @injectFault0(i64 372, double %34, i32 13, i32 0, i32 1, i32 0, i8* getelementptr inbounds ([5 x i8]* @fmul_namestr, i32 0, i32 0)), !llfi_injectfault !2
  %35 = load i32* %fi73, align 4, !llfi_index !374
  %fi104 = call i32 @injectFault5(i64 373, i32 %35, i32 27, i32 0, i32 1, i32 0, i8* getelementptr inbounds ([5 x i8]* @load_namestr, i32 0, i32 0)), !llfi_injectfault !2
  %36 = sext i32 %fi104 to i64, !llfi_index !375
  %fi105 = call i64 @injectFault6(i64 374, i64 %36, i32 35, i32 0, i32 1, i32 0, i8* getelementptr inbounds ([5 x i8]* @sext_namestr, i32 0, i32 0)), !llfi_injectfault !2
  %37 = load double*** %fi67, align 8, !llfi_index !376
  %fi106 = call double** @injectFault8(i64 375, double** %37, i32 27, i32 0, i32 1, i32 0, i8* getelementptr inbounds ([5 x i8]* @load_namestr, i32 0, i32 0)), !llfi_injectfault !2
  %38 = getelementptr double** %fi106, i64 %fi105, !llfi_index !377
  %fi107 = call double** @injectFault8(i64 376, double** %38, i32 29, i32 0, i32 1, i32 0, i8* getelementptr inbounds ([14 x i8]* @getelementptr_namestr, i32 0, i32 0)), !llfi_injectfault !2
  %39 = load double** %fi107, align 8, !llfi_index !378
  %fi108 = call double* @injectFault3(i64 377, double* %39, i32 27, i32 0, i32 1, i32 0, i8* getelementptr inbounds ([5 x i8]* @load_namestr, i32 0, i32 0)), !llfi_injectfault !2
  %40 = getelementptr double* %fi108, i64 0, !llfi_index !379
  %fi109 = call double* @injectFault3(i64 378, double* %40, i32 29, i32 0, i32 1, i32 0, i8* getelementptr inbounds ([14 x i8]* @getelementptr_namestr, i32 0, i32 0)), !llfi_injectfault !2
  store double %fi103, double* %fi109, align 8, !llfi_index !380
  br label %41, !llfi_index !381

; <label>:41                                      ; preds = %16
  %42 = load i32* %fi73, align 4, !llfi_index !382
  %fi110 = call i32 @injectFault5(i64 381, i32 %42, i32 27, i32 0, i32 1, i32 0, i8* getelementptr inbounds ([5 x i8]* @load_namestr, i32 0, i32 0)), !llfi_injectfault !2
  %43 = add nsw i32 %fi110, 1, !llfi_index !383
  %fi111 = call i32 @injectFault5(i64 382, i32 %43, i32 8, i32 0, i32 1, i32 0, i8* getelementptr inbounds ([4 x i8]* @add_namestr, i32 0, i32 0)), !llfi_injectfault !2
  store i32 %fi111, i32* %fi73, align 4, !llfi_index !384
  br label %11, !llfi_index !385

; <label>:44                                      ; preds = %11
  store i32 0, i32* %fi73, align 4, !llfi_index !386
  br label %45, !llfi_index !387

; <label>:45                                      ; preds = %134, %44
  %46 = load i32* %fi73, align 4, !llfi_index !388
  %fi = call i32 @injectFault5(i64 387, i32 %46, i32 27, i32 0, i32 1, i32 0, i8* getelementptr inbounds ([5 x i8]* @load_namestr, i32 0, i32 0)), !llfi_injectfault !2
  %47 = load i32* %fi69, align 4, !llfi_index !389
  %fi1 = call i32 @injectFault5(i64 388, i32 %47, i32 27, i32 0, i32 1, i32 0, i8* getelementptr inbounds ([5 x i8]* @load_namestr, i32 0, i32 0)), !llfi_injectfault !2
  %48 = sub nsw i32 %fi1, 1, !llfi_index !390
  %fi2 = call i32 @injectFault5(i64 389, i32 %48, i32 10, i32 0, i32 1, i32 0, i8* getelementptr inbounds ([4 x i8]* @sub_namestr, i32 0, i32 0)), !llfi_injectfault !2
  %49 = icmp sle i32 %fi, %fi2, !llfi_index !391
  %fi3 = call i1 @injectFault4(i64 390, i1 %49, i32 46, i32 0, i32 1, i32 0, i8* getelementptr inbounds ([5 x i8]* @icmp_namestr, i32 0, i32 0)), !llfi_injectfault !2
  br i1 %fi3, label %50, label %137, !llfi_index !392

; <label>:50                                      ; preds = %45
  store i32 1, i32* %fi74, align 4, !llfi_index !393
  br label %51, !llfi_index !394

; <label>:51                                      ; preds = %130, %50
  %52 = load i32* %fi74, align 4, !llfi_index !395
  %fi4 = call i32 @injectFault5(i64 394, i32 %52, i32 27, i32 0, i32 1, i32 0, i8* getelementptr inbounds ([5 x i8]* @load_namestr, i32 0, i32 0)), !llfi_injectfault !2
  %53 = load i32* %fi68, align 4, !llfi_index !396
  %fi5 = call i32 @injectFault5(i64 395, i32 %53, i32 27, i32 0, i32 1, i32 0, i8* getelementptr inbounds ([5 x i8]* @load_namestr, i32 0, i32 0)), !llfi_injectfault !2
  %54 = sub nsw i32 %fi5, 2, !llfi_index !397
  %fi6 = call i32 @injectFault5(i64 396, i32 %54, i32 10, i32 0, i32 1, i32 0, i8* getelementptr inbounds ([4 x i8]* @sub_namestr, i32 0, i32 0)), !llfi_injectfault !2
  %55 = icmp sle i32 %fi4, %fi6, !llfi_index !398
  %fi7 = call i1 @injectFault4(i64 397, i1 %55, i32 46, i32 0, i32 1, i32 0, i8* getelementptr inbounds ([5 x i8]* @icmp_namestr, i32 0, i32 0)), !llfi_injectfault !2
  br i1 %fi7, label %56, label %133, !llfi_index !399

; <label>:56                                      ; preds = %51
  %57 = load i32* %fi74, align 4, !llfi_index !400
  %fi8 = call i32 @injectFault5(i64 399, i32 %57, i32 27, i32 0, i32 1, i32 0, i8* getelementptr inbounds ([5 x i8]* @load_namestr, i32 0, i32 0)), !llfi_injectfault !2
  %58 = sext i32 %fi8 to i64, !llfi_index !401
  %fi9 = call i64 @injectFault6(i64 400, i64 %58, i32 35, i32 0, i32 1, i32 0, i8* getelementptr inbounds ([5 x i8]* @sext_namestr, i32 0, i32 0)), !llfi_injectfault !2
  %59 = load i32* %fi73, align 4, !llfi_index !402
  %fi10 = call i32 @injectFault5(i64 401, i32 %59, i32 27, i32 0, i32 1, i32 0, i8* getelementptr inbounds ([5 x i8]* @load_namestr, i32 0, i32 0)), !llfi_injectfault !2
  %60 = sext i32 %fi10 to i64, !llfi_index !403
  %fi11 = call i64 @injectFault6(i64 402, i64 %60, i32 35, i32 0, i32 1, i32 0, i8* getelementptr inbounds ([5 x i8]* @sext_namestr, i32 0, i32 0)), !llfi_injectfault !2
  %61 = load double*** %fi67, align 8, !llfi_index !404
  %fi12 = call double** @injectFault8(i64 403, double** %61, i32 27, i32 0, i32 1, i32 0, i8* getelementptr inbounds ([5 x i8]* @load_namestr, i32 0, i32 0)), !llfi_injectfault !2
  %62 = getelementptr double** %fi12, i64 %fi11, !llfi_index !405
  %fi13 = call double** @injectFault8(i64 404, double** %62, i32 29, i32 0, i32 1, i32 0, i8* getelementptr inbounds ([14 x i8]* @getelementptr_namestr, i32 0, i32 0)), !llfi_injectfault !2
  %63 = load double** %fi13, align 8, !llfi_index !406
  %fi14 = call double* @injectFault3(i64 405, double* %63, i32 27, i32 0, i32 1, i32 0, i8* getelementptr inbounds ([5 x i8]* @load_namestr, i32 0, i32 0)), !llfi_injectfault !2
  %64 = getelementptr double* %fi14, i64 %fi9, !llfi_index !407
  %fi15 = call double* @injectFault3(i64 406, double* %64, i32 29, i32 0, i32 1, i32 0, i8* getelementptr inbounds ([14 x i8]* @getelementptr_namestr, i32 0, i32 0)), !llfi_injectfault !2
  store double 0.000000e+00, double* %fi15, align 8, !llfi_index !408
  store i32 0, i32* %fi75, align 4, !llfi_index !409
  br label %65, !llfi_index !410

; <label>:65                                      ; preds = %90, %56
  %66 = load i32* %fi75, align 4, !llfi_index !411
  %fi19 = call i32 @injectFault5(i64 410, i32 %66, i32 27, i32 0, i32 1, i32 0, i8* getelementptr inbounds ([5 x i8]* @load_namestr, i32 0, i32 0)), !llfi_injectfault !2
  %67 = load i32* %fi74, align 4, !llfi_index !412
  %fi20 = call i32 @injectFault5(i64 411, i32 %67, i32 27, i32 0, i32 1, i32 0, i8* getelementptr inbounds ([5 x i8]* @load_namestr, i32 0, i32 0)), !llfi_injectfault !2
  %68 = sub nsw i32 %fi20, 1, !llfi_index !413
  %fi21 = call i32 @injectFault5(i64 412, i32 %68, i32 10, i32 0, i32 1, i32 0, i8* getelementptr inbounds ([4 x i8]* @sub_namestr, i32 0, i32 0)), !llfi_injectfault !2
  %69 = icmp sle i32 %fi19, %fi21, !llfi_index !414
  %fi22 = call i1 @injectFault4(i64 413, i1 %69, i32 46, i32 0, i32 1, i32 0, i8* getelementptr inbounds ([5 x i8]* @icmp_namestr, i32 0, i32 0)), !llfi_injectfault !2
  br i1 %fi22, label %70, label %93, !llfi_index !415

; <label>:70                                      ; preds = %65
  %71 = load i32* %fi75, align 4, !llfi_index !416
  %fi23 = call i32 @injectFault5(i64 415, i32 %71, i32 27, i32 0, i32 1, i32 0, i8* getelementptr inbounds ([5 x i8]* @load_namestr, i32 0, i32 0)), !llfi_injectfault !2
  %72 = sext i32 %fi23 to i64, !llfi_index !417
  %fi24 = call i64 @injectFault6(i64 416, i64 %72, i32 35, i32 0, i32 1, i32 0, i8* getelementptr inbounds ([5 x i8]* @sext_namestr, i32 0, i32 0)), !llfi_injectfault !2
  %73 = load i32* %fi73, align 4, !llfi_index !418
  %fi25 = call i32 @injectFault5(i64 417, i32 %73, i32 27, i32 0, i32 1, i32 0, i8* getelementptr inbounds ([5 x i8]* @load_namestr, i32 0, i32 0)), !llfi_injectfault !2
  %74 = sext i32 %fi25 to i64, !llfi_index !419
  %fi26 = call i64 @injectFault6(i64 418, i64 %74, i32 35, i32 0, i32 1, i32 0, i8* getelementptr inbounds ([5 x i8]* @sext_namestr, i32 0, i32 0)), !llfi_injectfault !2
  %75 = load double*** %fi67, align 8, !llfi_index !420
  %fi27 = call double** @injectFault8(i64 419, double** %75, i32 27, i32 0, i32 1, i32 0, i8* getelementptr inbounds ([5 x i8]* @load_namestr, i32 0, i32 0)), !llfi_injectfault !2
  %76 = getelementptr double** %fi27, i64 %fi26, !llfi_index !421
  %fi28 = call double** @injectFault8(i64 420, double** %76, i32 29, i32 0, i32 1, i32 0, i8* getelementptr inbounds ([14 x i8]* @getelementptr_namestr, i32 0, i32 0)), !llfi_injectfault !2
  %77 = load double** %fi28, align 8, !llfi_index !422
  %fi29 = call double* @injectFault3(i64 421, double* %77, i32 27, i32 0, i32 1, i32 0, i8* getelementptr inbounds ([5 x i8]* @load_namestr, i32 0, i32 0)), !llfi_injectfault !2
  %78 = getelementptr double* %fi29, i64 %fi24, !llfi_index !423
  %fi30 = call double* @injectFault3(i64 422, double* %78, i32 29, i32 0, i32 1, i32 0, i8* getelementptr inbounds ([14 x i8]* @getelementptr_namestr, i32 0, i32 0)), !llfi_injectfault !2
  %79 = load double* %fi30, align 8, !llfi_index !424
  %fi31 = call double @injectFault0(i64 423, double %79, i32 27, i32 0, i32 1, i32 0, i8* getelementptr inbounds ([5 x i8]* @load_namestr, i32 0, i32 0)), !llfi_injectfault !2
  %80 = load i32* %fi74, align 4, !llfi_index !425
  %fi32 = call i32 @injectFault5(i64 424, i32 %80, i32 27, i32 0, i32 1, i32 0, i8* getelementptr inbounds ([5 x i8]* @load_namestr, i32 0, i32 0)), !llfi_injectfault !2
  %81 = sext i32 %fi32 to i64, !llfi_index !426
  %fi33 = call i64 @injectFault6(i64 425, i64 %81, i32 35, i32 0, i32 1, i32 0, i8* getelementptr inbounds ([5 x i8]* @sext_namestr, i32 0, i32 0)), !llfi_injectfault !2
  %82 = load i32* %fi73, align 4, !llfi_index !427
  %fi34 = call i32 @injectFault5(i64 426, i32 %82, i32 27, i32 0, i32 1, i32 0, i8* getelementptr inbounds ([5 x i8]* @load_namestr, i32 0, i32 0)), !llfi_injectfault !2
  %83 = sext i32 %fi34 to i64, !llfi_index !428
  %fi35 = call i64 @injectFault6(i64 427, i64 %83, i32 35, i32 0, i32 1, i32 0, i8* getelementptr inbounds ([5 x i8]* @sext_namestr, i32 0, i32 0)), !llfi_injectfault !2
  %84 = load double*** %fi67, align 8, !llfi_index !429
  %fi36 = call double** @injectFault8(i64 428, double** %84, i32 27, i32 0, i32 1, i32 0, i8* getelementptr inbounds ([5 x i8]* @load_namestr, i32 0, i32 0)), !llfi_injectfault !2
  %85 = getelementptr double** %fi36, i64 %fi35, !llfi_index !430
  %fi37 = call double** @injectFault8(i64 429, double** %85, i32 29, i32 0, i32 1, i32 0, i8* getelementptr inbounds ([14 x i8]* @getelementptr_namestr, i32 0, i32 0)), !llfi_injectfault !2
  %86 = load double** %fi37, align 8, !llfi_index !431
  %fi38 = call double* @injectFault3(i64 430, double* %86, i32 27, i32 0, i32 1, i32 0, i8* getelementptr inbounds ([5 x i8]* @load_namestr, i32 0, i32 0)), !llfi_injectfault !2
  %87 = getelementptr double* %fi38, i64 %fi33, !llfi_index !432
  %fi39 = call double* @injectFault3(i64 431, double* %87, i32 29, i32 0, i32 1, i32 0, i8* getelementptr inbounds ([14 x i8]* @getelementptr_namestr, i32 0, i32 0)), !llfi_injectfault !2
  %88 = load double* %fi39, align 8, !llfi_index !433
  %fi40 = call double @injectFault0(i64 432, double %88, i32 27, i32 0, i32 1, i32 0, i8* getelementptr inbounds ([5 x i8]* @load_namestr, i32 0, i32 0)), !llfi_injectfault !2
  %89 = fsub double %fi40, %fi31, !llfi_index !434
  %fi41 = call double @injectFault0(i64 433, double %89, i32 11, i32 0, i32 1, i32 0, i8* getelementptr inbounds ([5 x i8]* @fsub_namestr, i32 0, i32 0)), !llfi_injectfault !2
  store double %fi41, double* %fi39, align 8, !llfi_index !435
  br label %90, !llfi_index !436

; <label>:90                                      ; preds = %70
  %91 = load i32* %fi75, align 4, !llfi_index !437
  %fi42 = call i32 @injectFault5(i64 436, i32 %91, i32 27, i32 0, i32 1, i32 0, i8* getelementptr inbounds ([5 x i8]* @load_namestr, i32 0, i32 0)), !llfi_injectfault !2
  %92 = add nsw i32 %fi42, 1, !llfi_index !438
  %fi43 = call i32 @injectFault5(i64 437, i32 %92, i32 8, i32 0, i32 1, i32 0, i8* getelementptr inbounds ([4 x i8]* @add_namestr, i32 0, i32 0)), !llfi_injectfault !2
  store i32 %fi43, i32* %fi75, align 4, !llfi_index !439
  br label %65, !llfi_index !440

; <label>:93                                      ; preds = %65
  store double 0.000000e+00, double* %fi77, align 8, !llfi_index !441
  store i32 0, i32* %fi75, align 4, !llfi_index !442
  br label %94, !llfi_index !443

; <label>:94                                      ; preds = %110, %93
  %95 = load i32* %fi75, align 4, !llfi_index !444
  %fi44 = call i32 @injectFault5(i64 443, i32 %95, i32 27, i32 0, i32 1, i32 0, i8* getelementptr inbounds ([5 x i8]* @load_namestr, i32 0, i32 0)), !llfi_injectfault !2
  %96 = load i32* %fi74, align 4, !llfi_index !445
  %fi45 = call i32 @injectFault5(i64 444, i32 %96, i32 27, i32 0, i32 1, i32 0, i8* getelementptr inbounds ([5 x i8]* @load_namestr, i32 0, i32 0)), !llfi_injectfault !2
  %97 = icmp sle i32 %fi44, %fi45, !llfi_index !446
  %fi46 = call i1 @injectFault4(i64 445, i1 %97, i32 46, i32 0, i32 1, i32 0, i8* getelementptr inbounds ([5 x i8]* @icmp_namestr, i32 0, i32 0)), !llfi_injectfault !2
  br i1 %fi46, label %98, label %113, !llfi_index !447

; <label>:98                                      ; preds = %94
  %99 = load i32* %fi75, align 4, !llfi_index !448
  %fi47 = call i32 @injectFault5(i64 447, i32 %99, i32 27, i32 0, i32 1, i32 0, i8* getelementptr inbounds ([5 x i8]* @load_namestr, i32 0, i32 0)), !llfi_injectfault !2
  %100 = sext i32 %fi47 to i64, !llfi_index !449
  %fi48 = call i64 @injectFault6(i64 448, i64 %100, i32 35, i32 0, i32 1, i32 0, i8* getelementptr inbounds ([5 x i8]* @sext_namestr, i32 0, i32 0)), !llfi_injectfault !2
  %101 = load i32* %fi73, align 4, !llfi_index !450
  %fi49 = call i32 @injectFault5(i64 449, i32 %101, i32 27, i32 0, i32 1, i32 0, i8* getelementptr inbounds ([5 x i8]* @load_namestr, i32 0, i32 0)), !llfi_injectfault !2
  %102 = sext i32 %fi49 to i64, !llfi_index !451
  %fi50 = call i64 @injectFault6(i64 450, i64 %102, i32 35, i32 0, i32 1, i32 0, i8* getelementptr inbounds ([5 x i8]* @sext_namestr, i32 0, i32 0)), !llfi_injectfault !2
  %103 = load double*** %fi71, align 8, !llfi_index !452
  %fi51 = call double** @injectFault8(i64 451, double** %103, i32 27, i32 0, i32 1, i32 0, i8* getelementptr inbounds ([5 x i8]* @load_namestr, i32 0, i32 0)), !llfi_injectfault !2
  %104 = getelementptr double** %fi51, i64 %fi50, !llfi_index !453
  %fi52 = call double** @injectFault8(i64 452, double** %104, i32 29, i32 0, i32 1, i32 0, i8* getelementptr inbounds ([14 x i8]* @getelementptr_namestr, i32 0, i32 0)), !llfi_injectfault !2
  %105 = load double** %fi52, align 8, !llfi_index !454
  %fi53 = call double* @injectFault3(i64 453, double* %105, i32 27, i32 0, i32 1, i32 0, i8* getelementptr inbounds ([5 x i8]* @load_namestr, i32 0, i32 0)), !llfi_injectfault !2
  %106 = getelementptr double* %fi53, i64 %fi48, !llfi_index !455
  %fi54 = call double* @injectFault3(i64 454, double* %106, i32 29, i32 0, i32 1, i32 0, i8* getelementptr inbounds ([14 x i8]* @getelementptr_namestr, i32 0, i32 0)), !llfi_injectfault !2
  %107 = load double* %fi54, align 8, !llfi_index !456
  %fi55 = call double @injectFault0(i64 455, double %107, i32 27, i32 0, i32 1, i32 0, i8* getelementptr inbounds ([5 x i8]* @load_namestr, i32 0, i32 0)), !llfi_injectfault !2
  %108 = load double* %fi77, align 8, !llfi_index !457
  %fi56 = call double @injectFault0(i64 456, double %108, i32 27, i32 0, i32 1, i32 0, i8* getelementptr inbounds ([5 x i8]* @load_namestr, i32 0, i32 0)), !llfi_injectfault !2
  %109 = fadd double %fi56, %fi55, !llfi_index !458
  %fi57 = call double @injectFault0(i64 457, double %109, i32 9, i32 0, i32 1, i32 0, i8* getelementptr inbounds ([5 x i8]* @fadd_namestr, i32 0, i32 0)), !llfi_injectfault !2
  store double %fi57, double* %fi77, align 8, !llfi_index !459
  br label %110, !llfi_index !460

; <label>:110                                     ; preds = %98
  %111 = load i32* %fi75, align 4, !llfi_index !461
  %fi58 = call i32 @injectFault5(i64 460, i32 %111, i32 27, i32 0, i32 1, i32 0, i8* getelementptr inbounds ([5 x i8]* @load_namestr, i32 0, i32 0)), !llfi_injectfault !2
  %112 = add nsw i32 %fi58, 1, !llfi_index !462
  %fi59 = call i32 @injectFault5(i64 461, i32 %112, i32 8, i32 0, i32 1, i32 0, i8* getelementptr inbounds ([4 x i8]* @add_namestr, i32 0, i32 0)), !llfi_injectfault !2
  store i32 %fi59, i32* %fi75, align 4, !llfi_index !463
  br label %94, !llfi_index !464

; <label>:113                                     ; preds = %94
  %114 = load double* %fi76, align 8, !llfi_index !465
  %fi60 = call double @injectFault0(i64 464, double %114, i32 27, i32 0, i32 1, i32 0, i8* getelementptr inbounds ([5 x i8]* @load_namestr, i32 0, i32 0)), !llfi_injectfault !2
  %115 = fmul double 5.000000e-01, %fi60, !llfi_index !466
  %fi61 = call double @injectFault0(i64 465, double %115, i32 13, i32 0, i32 1, i32 0, i8* getelementptr inbounds ([5 x i8]* @fmul_namestr, i32 0, i32 0)), !llfi_injectfault !2
  %116 = load double* %fi77, align 8, !llfi_index !467
  %fi62 = call double @injectFault0(i64 466, double %116, i32 27, i32 0, i32 1, i32 0, i8* getelementptr inbounds ([5 x i8]* @load_namestr, i32 0, i32 0)), !llfi_injectfault !2
  %117 = fmul double %fi61, %fi62, !llfi_index !468
  %fi63 = call double @injectFault0(i64 467, double %117, i32 13, i32 0, i32 1, i32 0, i8* getelementptr inbounds ([5 x i8]* @fmul_namestr, i32 0, i32 0)), !llfi_injectfault !2
  %118 = load double* %fi77, align 8, !llfi_index !469
  %fi64 = call double @injectFault0(i64 468, double %118, i32 27, i32 0, i32 1, i32 0, i8* getelementptr inbounds ([5 x i8]* @load_namestr, i32 0, i32 0)), !llfi_injectfault !2
  %119 = fmul double %fi63, %fi64, !llfi_index !470
  %fi65 = call double @injectFault0(i64 469, double %119, i32 13, i32 0, i32 1, i32 0, i8* getelementptr inbounds ([5 x i8]* @fmul_namestr, i32 0, i32 0)), !llfi_injectfault !2
  %120 = load i32* %fi74, align 4, !llfi_index !471
  %fi112 = call i32 @injectFault5(i64 470, i32 %120, i32 27, i32 0, i32 1, i32 0, i8* getelementptr inbounds ([5 x i8]* @load_namestr, i32 0, i32 0)), !llfi_injectfault !2
  %121 = sext i32 %fi112 to i64, !llfi_index !472
  %fi113 = call i64 @injectFault6(i64 471, i64 %121, i32 35, i32 0, i32 1, i32 0, i8* getelementptr inbounds ([5 x i8]* @sext_namestr, i32 0, i32 0)), !llfi_injectfault !2
  %122 = load i32* %fi73, align 4, !llfi_index !473
  %fi114 = call i32 @injectFault5(i64 472, i32 %122, i32 27, i32 0, i32 1, i32 0, i8* getelementptr inbounds ([5 x i8]* @load_namestr, i32 0, i32 0)), !llfi_injectfault !2
  %123 = sext i32 %fi114 to i64, !llfi_index !474
  %fi115 = call i64 @injectFault6(i64 473, i64 %123, i32 35, i32 0, i32 1, i32 0, i8* getelementptr inbounds ([5 x i8]* @sext_namestr, i32 0, i32 0)), !llfi_injectfault !2
  %124 = load double*** %fi67, align 8, !llfi_index !475
  %fi116 = call double** @injectFault8(i64 474, double** %124, i32 27, i32 0, i32 1, i32 0, i8* getelementptr inbounds ([5 x i8]* @load_namestr, i32 0, i32 0)), !llfi_injectfault !2
  %125 = getelementptr double** %fi116, i64 %fi115, !llfi_index !476
  %fi117 = call double** @injectFault8(i64 475, double** %125, i32 29, i32 0, i32 1, i32 0, i8* getelementptr inbounds ([14 x i8]* @getelementptr_namestr, i32 0, i32 0)), !llfi_injectfault !2
  %126 = load double** %fi117, align 8, !llfi_index !477
  %fi118 = call double* @injectFault3(i64 476, double* %126, i32 27, i32 0, i32 1, i32 0, i8* getelementptr inbounds ([5 x i8]* @load_namestr, i32 0, i32 0)), !llfi_injectfault !2
  %127 = getelementptr double* %fi118, i64 %fi113, !llfi_index !478
  %fi119 = call double* @injectFault3(i64 477, double* %127, i32 29, i32 0, i32 1, i32 0, i8* getelementptr inbounds ([14 x i8]* @getelementptr_namestr, i32 0, i32 0)), !llfi_injectfault !2
  %128 = load double* %fi119, align 8, !llfi_index !479
  %fi120 = call double @injectFault0(i64 478, double %128, i32 27, i32 0, i32 1, i32 0, i8* getelementptr inbounds ([5 x i8]* @load_namestr, i32 0, i32 0)), !llfi_injectfault !2
  %129 = fadd double %fi120, %fi65, !llfi_index !480
  %fi16 = call double @injectFault0(i64 479, double %129, i32 9, i32 0, i32 1, i32 0, i8* getelementptr inbounds ([5 x i8]* @fadd_namestr, i32 0, i32 0)), !llfi_injectfault !2
  store double %fi16, double* %fi119, align 8, !llfi_index !481
  br label %130, !llfi_index !482

; <label>:130                                     ; preds = %113
  %131 = load i32* %fi74, align 4, !llfi_index !483
  %fi17 = call i32 @injectFault5(i64 482, i32 %131, i32 27, i32 0, i32 1, i32 0, i8* getelementptr inbounds ([5 x i8]* @load_namestr, i32 0, i32 0)), !llfi_injectfault !2
  %132 = add nsw i32 %fi17, 1, !llfi_index !484
  %fi18 = call i32 @injectFault5(i64 483, i32 %132, i32 8, i32 0, i32 1, i32 0, i8* getelementptr inbounds ([4 x i8]* @add_namestr, i32 0, i32 0)), !llfi_injectfault !2
  store i32 %fi18, i32* %fi74, align 4, !llfi_index !485
  br label %51, !llfi_index !486

; <label>:133                                     ; preds = %51
  br label %134, !llfi_index !487

; <label>:134                                     ; preds = %133
  %135 = load i32* %fi73, align 4, !llfi_index !488
  %fi121 = call i32 @injectFault5(i64 487, i32 %135, i32 27, i32 0, i32 1, i32 0, i8* getelementptr inbounds ([5 x i8]* @load_namestr, i32 0, i32 0)), !llfi_injectfault !2
  %136 = add nsw i32 %fi121, 1, !llfi_index !489
  %fi122 = call i32 @injectFault5(i64 488, i32 %136, i32 8, i32 0, i32 1, i32 0, i8* getelementptr inbounds ([4 x i8]* @add_namestr, i32 0, i32 0)), !llfi_injectfault !2
  store i32 %fi122, i32* %fi73, align 4, !llfi_index !490
  br label %45, !llfi_index !491

; <label>:137                                     ; preds = %45
  store i32 0, i32* %fi73, align 4, !llfi_index !492
  br label %138, !llfi_index !493

; <label>:138                                     ; preds = %173, %137
  %139 = load i32* %fi73, align 4, !llfi_index !494
  %fi123 = call i32 @injectFault5(i64 493, i32 %139, i32 27, i32 0, i32 1, i32 0, i8* getelementptr inbounds ([5 x i8]* @load_namestr, i32 0, i32 0)), !llfi_injectfault !2
  %140 = load i32* %fi68, align 4, !llfi_index !495
  %fi124 = call i32 @injectFault5(i64 494, i32 %140, i32 27, i32 0, i32 1, i32 0, i8* getelementptr inbounds ([5 x i8]* @load_namestr, i32 0, i32 0)), !llfi_injectfault !2
  %141 = sub nsw i32 %fi124, 2, !llfi_index !496
  %fi125 = call i32 @injectFault5(i64 495, i32 %141, i32 10, i32 0, i32 1, i32 0, i8* getelementptr inbounds ([4 x i8]* @sub_namestr, i32 0, i32 0)), !llfi_injectfault !2
  %142 = icmp sle i32 %fi123, %fi125, !llfi_index !497
  %fi126 = call i1 @injectFault4(i64 496, i1 %142, i32 46, i32 0, i32 1, i32 0, i8* getelementptr inbounds ([5 x i8]* @icmp_namestr, i32 0, i32 0)), !llfi_injectfault !2
  br i1 %fi126, label %143, label %176, !llfi_index !498

; <label>:143                                     ; preds = %138
  %144 = load i32* %fi73, align 4, !llfi_index !499
  %fi127 = call i32 @injectFault5(i64 498, i32 %144, i32 27, i32 0, i32 1, i32 0, i8* getelementptr inbounds ([5 x i8]* @load_namestr, i32 0, i32 0)), !llfi_injectfault !2
  %145 = sext i32 %fi127 to i64, !llfi_index !500
  %fi128 = call i64 @injectFault6(i64 499, i64 %145, i32 35, i32 0, i32 1, i32 0, i8* getelementptr inbounds ([5 x i8]* @sext_namestr, i32 0, i32 0)), !llfi_injectfault !2
  %146 = load double** %fi66, align 8, !llfi_index !501
  %fi129 = call double* @injectFault3(i64 500, double* %146, i32 27, i32 0, i32 1, i32 0, i8* getelementptr inbounds ([5 x i8]* @load_namestr, i32 0, i32 0)), !llfi_injectfault !2
  %147 = getelementptr double* %fi129, i64 %fi128, !llfi_index !502
  %fi130 = call double* @injectFault3(i64 501, double* %147, i32 29, i32 0, i32 1, i32 0, i8* getelementptr inbounds ([14 x i8]* @getelementptr_namestr, i32 0, i32 0)), !llfi_injectfault !2
  store double 0.000000e+00, double* %fi130, align 8, !llfi_index !503
  store i32 0, i32* %fi74, align 4, !llfi_index !504
  br label %148, !llfi_index !505

; <label>:148                                     ; preds = %169, %143
  %149 = load i32* %fi74, align 4, !llfi_index !506
  %fi131 = call i32 @injectFault5(i64 505, i32 %149, i32 27, i32 0, i32 1, i32 0, i8* getelementptr inbounds ([5 x i8]* @load_namestr, i32 0, i32 0)), !llfi_injectfault !2
  %150 = load i32* %fi69, align 4, !llfi_index !507
  %fi132 = call i32 @injectFault5(i64 506, i32 %150, i32 27, i32 0, i32 1, i32 0, i8* getelementptr inbounds ([5 x i8]* @load_namestr, i32 0, i32 0)), !llfi_injectfault !2
  %151 = sub nsw i32 %fi132, 1, !llfi_index !508
  %fi133 = call i32 @injectFault5(i64 507, i32 %151, i32 10, i32 0, i32 1, i32 0, i8* getelementptr inbounds ([4 x i8]* @sub_namestr, i32 0, i32 0)), !llfi_injectfault !2
  %152 = icmp sle i32 %fi131, %fi133, !llfi_index !509
  %fi134 = call i1 @injectFault4(i64 508, i1 %152, i32 46, i32 0, i32 1, i32 0, i8* getelementptr inbounds ([5 x i8]* @icmp_namestr, i32 0, i32 0)), !llfi_injectfault !2
  br i1 %fi134, label %153, label %172, !llfi_index !510

; <label>:153                                     ; preds = %148
  %154 = load i32* %fi73, align 4, !llfi_index !511
  %fi135 = call i32 @injectFault5(i64 510, i32 %154, i32 27, i32 0, i32 1, i32 0, i8* getelementptr inbounds ([5 x i8]* @load_namestr, i32 0, i32 0)), !llfi_injectfault !2
  %155 = sext i32 %fi135 to i64, !llfi_index !512
  %fi136 = call i64 @injectFault6(i64 511, i64 %155, i32 35, i32 0, i32 1, i32 0, i8* getelementptr inbounds ([5 x i8]* @sext_namestr, i32 0, i32 0)), !llfi_injectfault !2
  %156 = load i32* %fi74, align 4, !llfi_index !513
  %fi137 = call i32 @injectFault5(i64 512, i32 %156, i32 27, i32 0, i32 1, i32 0, i8* getelementptr inbounds ([5 x i8]* @load_namestr, i32 0, i32 0)), !llfi_injectfault !2
  %157 = sext i32 %fi137 to i64, !llfi_index !514
  %fi138 = call i64 @injectFault6(i64 513, i64 %157, i32 35, i32 0, i32 1, i32 0, i8* getelementptr inbounds ([5 x i8]* @sext_namestr, i32 0, i32 0)), !llfi_injectfault !2
  %158 = load double*** %fi67, align 8, !llfi_index !515
  %fi139 = call double** @injectFault8(i64 514, double** %158, i32 27, i32 0, i32 1, i32 0, i8* getelementptr inbounds ([5 x i8]* @load_namestr, i32 0, i32 0)), !llfi_injectfault !2
  %159 = getelementptr double** %fi139, i64 %fi138, !llfi_index !516
  %fi140 = call double** @injectFault8(i64 515, double** %159, i32 29, i32 0, i32 1, i32 0, i8* getelementptr inbounds ([14 x i8]* @getelementptr_namestr, i32 0, i32 0)), !llfi_injectfault !2
  %160 = load double** %fi140, align 8, !llfi_index !517
  %fi141 = call double* @injectFault3(i64 516, double* %160, i32 27, i32 0, i32 1, i32 0, i8* getelementptr inbounds ([5 x i8]* @load_namestr, i32 0, i32 0)), !llfi_injectfault !2
  %161 = getelementptr double* %fi141, i64 %fi136, !llfi_index !518
  %fi142 = call double* @injectFault3(i64 517, double* %161, i32 29, i32 0, i32 1, i32 0, i8* getelementptr inbounds ([14 x i8]* @getelementptr_namestr, i32 0, i32 0)), !llfi_injectfault !2
  %162 = load double* %fi142, align 8, !llfi_index !519
  %fi143 = call double @injectFault0(i64 518, double %162, i32 27, i32 0, i32 1, i32 0, i8* getelementptr inbounds ([5 x i8]* @load_namestr, i32 0, i32 0)), !llfi_injectfault !2
  %163 = load i32* %fi73, align 4, !llfi_index !520
  %fi144 = call i32 @injectFault5(i64 519, i32 %163, i32 27, i32 0, i32 1, i32 0, i8* getelementptr inbounds ([5 x i8]* @load_namestr, i32 0, i32 0)), !llfi_injectfault !2
  %164 = sext i32 %fi144 to i64, !llfi_index !521
  %fi145 = call i64 @injectFault6(i64 520, i64 %164, i32 35, i32 0, i32 1, i32 0, i8* getelementptr inbounds ([5 x i8]* @sext_namestr, i32 0, i32 0)), !llfi_injectfault !2
  %165 = load double** %fi66, align 8, !llfi_index !522
  %fi146 = call double* @injectFault3(i64 521, double* %165, i32 27, i32 0, i32 1, i32 0, i8* getelementptr inbounds ([5 x i8]* @load_namestr, i32 0, i32 0)), !llfi_injectfault !2
  %166 = getelementptr double* %fi146, i64 %fi145, !llfi_index !523
  %fi147 = call double* @injectFault3(i64 522, double* %166, i32 29, i32 0, i32 1, i32 0, i8* getelementptr inbounds ([14 x i8]* @getelementptr_namestr, i32 0, i32 0)), !llfi_injectfault !2
  %167 = load double* %fi147, align 8, !llfi_index !524
  %fi148 = call double @injectFault0(i64 523, double %167, i32 27, i32 0, i32 1, i32 0, i8* getelementptr inbounds ([5 x i8]* @load_namestr, i32 0, i32 0)), !llfi_injectfault !2
  %168 = fadd double %fi148, %fi143, !llfi_index !525
  %fi149 = call double @injectFault0(i64 524, double %168, i32 9, i32 0, i32 1, i32 0, i8* getelementptr inbounds ([5 x i8]* @fadd_namestr, i32 0, i32 0)), !llfi_injectfault !2
  store double %fi149, double* %fi147, align 8, !llfi_index !526
  br label %169, !llfi_index !527

; <label>:169                                     ; preds = %153
  %170 = load i32* %fi74, align 4, !llfi_index !528
  %fi150 = call i32 @injectFault5(i64 527, i32 %170, i32 27, i32 0, i32 1, i32 0, i8* getelementptr inbounds ([5 x i8]* @load_namestr, i32 0, i32 0)), !llfi_injectfault !2
  %171 = add nsw i32 %fi150, 1, !llfi_index !529
  %fi151 = call i32 @injectFault5(i64 528, i32 %171, i32 8, i32 0, i32 1, i32 0, i8* getelementptr inbounds ([4 x i8]* @add_namestr, i32 0, i32 0)), !llfi_injectfault !2
  store i32 %fi151, i32* %fi74, align 4, !llfi_index !530
  br label %148, !llfi_index !531

; <label>:172                                     ; preds = %148
  br label %173, !llfi_index !532

; <label>:173                                     ; preds = %172
  %174 = load i32* %fi73, align 4, !llfi_index !533
  %fi152 = call i32 @injectFault5(i64 532, i32 %174, i32 27, i32 0, i32 1, i32 0, i8* getelementptr inbounds ([5 x i8]* @load_namestr, i32 0, i32 0)), !llfi_injectfault !2
  %175 = add nsw i32 %fi152, 1, !llfi_index !534
  %fi153 = call i32 @injectFault5(i64 533, i32 %175, i32 8, i32 0, i32 1, i32 0, i8* getelementptr inbounds ([4 x i8]* @add_namestr, i32 0, i32 0)), !llfi_injectfault !2
  store i32 %fi153, i32* %fi73, align 4, !llfi_index !535
  br label %138, !llfi_index !536

; <label>:176                                     ; preds = %138
  store i32 1, i32* %fi72, align 4, !llfi_index !537
  %177 = load i32* %fi72, align 4, !llfi_index !538
  %fi154 = call i32 @injectFault5(i64 537, i32 %177, i32 27, i32 0, i32 1, i32 0, i8* getelementptr inbounds ([5 x i8]* @load_namestr, i32 0, i32 0)), !llfi_injectfault !2
  ret i32 %fi154, !llfi_index !539
}

; Function Attrs: uwtable
define i32 @_Z19HJM_SimPath_ForwardPPdiidS_S_S0_Pl(double** %ppdHJMPath, i32 %iN, i32 %iFactors, double %dYears, double* %pdForward, double* %pdTotalDrift, double** %ppdFactors, i64* %lRndSeed) #3 {
  %1 = alloca double**, align 8, !llfi_index !540
  %fi1 = call double*** @injectFault1(i64 539, double*** %1, i32 26, i32 0, i32 1, i32 0, i8* getelementptr inbounds ([7 x i8]* @alloca_namestr, i32 0, i32 0)), !llfi_injectfault !2
  %2 = alloca i32, align 4, !llfi_index !541
  %fi2 = call i32* @injectFault2(i64 540, i32* %2, i32 26, i32 0, i32 1, i32 0, i8* getelementptr inbounds ([7 x i8]* @alloca_namestr, i32 0, i32 0)), !llfi_injectfault !2
  %3 = alloca i32, align 4, !llfi_index !542
  %fi3 = call i32* @injectFault2(i64 541, i32* %3, i32 26, i32 0, i32 1, i32 0, i8* getelementptr inbounds ([7 x i8]* @alloca_namestr, i32 0, i32 0)), !llfi_injectfault !2
  %4 = alloca double, align 8, !llfi_index !543
  %fi4 = call double* @injectFault3(i64 542, double* %4, i32 26, i32 0, i32 1, i32 0, i8* getelementptr inbounds ([7 x i8]* @alloca_namestr, i32 0, i32 0)), !llfi_injectfault !2
  %5 = alloca double*, align 8, !llfi_index !544
  %fi5 = call double** @injectFault8(i64 543, double** %5, i32 26, i32 0, i32 1, i32 0, i8* getelementptr inbounds ([7 x i8]* @alloca_namestr, i32 0, i32 0)), !llfi_injectfault !2
  %6 = alloca double*, align 8, !llfi_index !545
  %fi6 = call double** @injectFault8(i64 544, double** %6, i32 26, i32 0, i32 1, i32 0, i8* getelementptr inbounds ([7 x i8]* @alloca_namestr, i32 0, i32 0)), !llfi_injectfault !2
  %7 = alloca double**, align 8, !llfi_index !546
  %fi7 = call double*** @injectFault1(i64 545, double*** %7, i32 26, i32 0, i32 1, i32 0, i8* getelementptr inbounds ([7 x i8]* @alloca_namestr, i32 0, i32 0)), !llfi_injectfault !2
  %8 = alloca i64*, align 8, !llfi_index !547
  %fi8 = call i64** @injectFault10(i64 546, i64** %8, i32 26, i32 0, i32 1, i32 0, i8* getelementptr inbounds ([7 x i8]* @alloca_namestr, i32 0, i32 0)), !llfi_injectfault !2
  %iSuccess = alloca i32, align 4, !llfi_index !548
  %fi9 = call i32* @injectFault2(i64 547, i32* %iSuccess, i32 26, i32 0, i32 1, i32 0, i8* getelementptr inbounds ([7 x i8]* @alloca_namestr, i32 0, i32 0)), !llfi_injectfault !2
  %i = alloca i32, align 4, !llfi_index !549
  %fi10 = call i32* @injectFault2(i64 548, i32* %i, i32 26, i32 0, i32 1, i32 0, i8* getelementptr inbounds ([7 x i8]* @alloca_namestr, i32 0, i32 0)), !llfi_injectfault !2
  %j = alloca i32, align 4, !llfi_index !550
  %fi11 = call i32* @injectFault2(i64 549, i32* %j, i32 26, i32 0, i32 1, i32 0, i8* getelementptr inbounds ([7 x i8]* @alloca_namestr, i32 0, i32 0)), !llfi_injectfault !2
  %l = alloca i32, align 4, !llfi_index !551
  %fi12 = call i32* @injectFault2(i64 550, i32* %l, i32 26, i32 0, i32 1, i32 0, i8* getelementptr inbounds ([7 x i8]* @alloca_namestr, i32 0, i32 0)), !llfi_injectfault !2
  %ddelt = alloca double, align 8, !llfi_index !552
  %fi13 = call double* @injectFault3(i64 551, double* %ddelt, i32 26, i32 0, i32 1, i32 0, i8* getelementptr inbounds ([7 x i8]* @alloca_namestr, i32 0, i32 0)), !llfi_injectfault !2
  %dTotalShock = alloca double, align 8, !llfi_index !553
  %fi = call double* @injectFault3(i64 552, double* %dTotalShock, i32 26, i32 0, i32 1, i32 0, i8* getelementptr inbounds ([7 x i8]* @alloca_namestr, i32 0, i32 0)), !llfi_injectfault !2
  %pdZ = alloca double*, align 8, !llfi_index !554
  %fi14 = call double** @injectFault8(i64 553, double** %pdZ, i32 26, i32 0, i32 1, i32 0, i8* getelementptr inbounds ([7 x i8]* @alloca_namestr, i32 0, i32 0)), !llfi_injectfault !2
  store double** %ppdHJMPath, double*** %fi1, align 8, !llfi_index !555
  store i32 %iN, i32* %fi2, align 4, !llfi_index !556
  store i32 %iFactors, i32* %fi3, align 4, !llfi_index !557
  store double %dYears, double* %fi4, align 8, !llfi_index !558
  store double* %pdForward, double** %fi5, align 8, !llfi_index !559
  store double* %pdTotalDrift, double** %fi6, align 8, !llfi_index !560
  store double** %ppdFactors, double*** %fi7, align 8, !llfi_index !561
  store i64* %lRndSeed, i64** %fi8, align 8, !llfi_index !562
  store i32 0, i32* %fi9, align 4, !llfi_index !563
  %9 = load double* %fi4, align 8, !llfi_index !564
  %fi15 = call double @injectFault0(i64 563, double %9, i32 27, i32 0, i32 1, i32 0, i8* getelementptr inbounds ([5 x i8]* @load_namestr, i32 0, i32 0)), !llfi_injectfault !2
  %10 = load i32* %fi2, align 4, !llfi_index !565
  %fi16 = call i32 @injectFault5(i64 564, i32 %10, i32 27, i32 0, i32 1, i32 0, i8* getelementptr inbounds ([5 x i8]* @load_namestr, i32 0, i32 0)), !llfi_injectfault !2
  %11 = sitofp i32 %fi16 to double, !llfi_index !566
  %fi17 = call double @injectFault0(i64 565, double %11, i32 39, i32 0, i32 1, i32 0, i8* getelementptr inbounds ([7 x i8]* @sitofp_namestr, i32 0, i32 0)), !llfi_injectfault !2
  %12 = fdiv double %fi15, %fi17, !llfi_index !567
  %fi18 = call double @injectFault0(i64 566, double %12, i32 16, i32 0, i32 1, i32 0, i8* getelementptr inbounds ([5 x i8]* @fdiv_namestr, i32 0, i32 0)), !llfi_injectfault !2
  store double %fi18, double* %fi13, align 8, !llfi_index !568
  %13 = load i32* %fi3, align 4, !llfi_index !569
  %fi19 = call i32 @injectFault5(i64 568, i32 %13, i32 27, i32 0, i32 1, i32 0, i8* getelementptr inbounds ([5 x i8]* @load_namestr, i32 0, i32 0)), !llfi_injectfault !2
  %14 = sub nsw i32 %fi19, 1, !llfi_index !570
  %fi20 = call i32 @injectFault5(i64 569, i32 %14, i32 10, i32 0, i32 1, i32 0, i8* getelementptr inbounds ([4 x i8]* @sub_namestr, i32 0, i32 0)), !llfi_injectfault !2
  %15 = sext i32 %fi20 to i64, !llfi_index !571
  %fi21 = call i64 @injectFault6(i64 570, i64 %15, i32 35, i32 0, i32 1, i32 0, i8* getelementptr inbounds ([5 x i8]* @sext_namestr, i32 0, i32 0)), !llfi_injectfault !2
  %16 = call double* @_Z7dvectorll(i64 0, i64 %fi21), !llfi_index !572
  %fi22 = call double* @injectFault3(i64 571, double* %16, i32 49, i32 0, i32 1, i32 0, i8* getelementptr inbounds ([5 x i8]* @call_namestr, i32 0, i32 0)), !llfi_injectfault !2
  store double* %fi22, double** %fi14, align 8, !llfi_index !573
  store i32 0, i32* %fi10, align 4, !llfi_index !574
  br label %17, !llfi_index !575

; <label>:17                                      ; preds = %41, %0
  %18 = load i32* %fi10, align 4, !llfi_index !576
  %fi24 = call i32 @injectFault5(i64 575, i32 %18, i32 27, i32 0, i32 1, i32 0, i8* getelementptr inbounds ([5 x i8]* @load_namestr, i32 0, i32 0)), !llfi_injectfault !2
  %19 = load i32* %fi2, align 4, !llfi_index !577
  %fi25 = call i32 @injectFault5(i64 576, i32 %19, i32 27, i32 0, i32 1, i32 0, i8* getelementptr inbounds ([5 x i8]* @load_namestr, i32 0, i32 0)), !llfi_injectfault !2
  %20 = sub nsw i32 %fi25, 1, !llfi_index !578
  %fi26 = call i32 @injectFault5(i64 577, i32 %20, i32 10, i32 0, i32 1, i32 0, i8* getelementptr inbounds ([4 x i8]* @sub_namestr, i32 0, i32 0)), !llfi_injectfault !2
  %21 = icmp sle i32 %fi24, %fi26, !llfi_index !579
  %fi27 = call i1 @injectFault4(i64 578, i1 %21, i32 46, i32 0, i32 1, i32 0, i8* getelementptr inbounds ([5 x i8]* @icmp_namestr, i32 0, i32 0)), !llfi_injectfault !2
  br i1 %fi27, label %22, label %44, !llfi_index !580

; <label>:22                                      ; preds = %17
  store i32 0, i32* %fi11, align 4, !llfi_index !581
  br label %23, !llfi_index !582

; <label>:23                                      ; preds = %37, %22
  %24 = load i32* %fi11, align 4, !llfi_index !583
  %fi28 = call i32 @injectFault5(i64 582, i32 %24, i32 27, i32 0, i32 1, i32 0, i8* getelementptr inbounds ([5 x i8]* @load_namestr, i32 0, i32 0)), !llfi_injectfault !2
  %25 = load i32* %fi2, align 4, !llfi_index !584
  %fi29 = call i32 @injectFault5(i64 583, i32 %25, i32 27, i32 0, i32 1, i32 0, i8* getelementptr inbounds ([5 x i8]* @load_namestr, i32 0, i32 0)), !llfi_injectfault !2
  %26 = sub nsw i32 %fi29, 1, !llfi_index !585
  %fi30 = call i32 @injectFault5(i64 584, i32 %26, i32 10, i32 0, i32 1, i32 0, i8* getelementptr inbounds ([4 x i8]* @sub_namestr, i32 0, i32 0)), !llfi_injectfault !2
  %27 = icmp sle i32 %fi28, %fi30, !llfi_index !586
  %fi31 = call i1 @injectFault4(i64 585, i1 %27, i32 46, i32 0, i32 1, i32 0, i8* getelementptr inbounds ([5 x i8]* @icmp_namestr, i32 0, i32 0)), !llfi_injectfault !2
  br i1 %fi31, label %28, label %40, !llfi_index !587

; <label>:28                                      ; preds = %23
  %29 = load i32* %fi11, align 4, !llfi_index !588
  %fi32 = call i32 @injectFault5(i64 587, i32 %29, i32 27, i32 0, i32 1, i32 0, i8* getelementptr inbounds ([5 x i8]* @load_namestr, i32 0, i32 0)), !llfi_injectfault !2
  %30 = sext i32 %fi32 to i64, !llfi_index !589
  %fi33 = call i64 @injectFault6(i64 588, i64 %30, i32 35, i32 0, i32 1, i32 0, i8* getelementptr inbounds ([5 x i8]* @sext_namestr, i32 0, i32 0)), !llfi_injectfault !2
  %31 = load i32* %fi10, align 4, !llfi_index !590
  %fi34 = call i32 @injectFault5(i64 589, i32 %31, i32 27, i32 0, i32 1, i32 0, i8* getelementptr inbounds ([5 x i8]* @load_namestr, i32 0, i32 0)), !llfi_injectfault !2
  %32 = sext i32 %fi34 to i64, !llfi_index !591
  %fi35 = call i64 @injectFault6(i64 590, i64 %32, i32 35, i32 0, i32 1, i32 0, i8* getelementptr inbounds ([5 x i8]* @sext_namestr, i32 0, i32 0)), !llfi_injectfault !2
  %33 = load double*** %fi1, align 8, !llfi_index !592
  %fi23 = call double** @injectFault8(i64 591, double** %33, i32 27, i32 0, i32 1, i32 0, i8* getelementptr inbounds ([5 x i8]* @load_namestr, i32 0, i32 0)), !llfi_injectfault !2
  %34 = getelementptr double** %fi23, i64 %fi35, !llfi_index !593
  %fi36 = call double** @injectFault8(i64 592, double** %34, i32 29, i32 0, i32 1, i32 0, i8* getelementptr inbounds ([14 x i8]* @getelementptr_namestr, i32 0, i32 0)), !llfi_injectfault !2
  %35 = load double** %fi36, align 8, !llfi_index !594
  %fi37 = call double* @injectFault3(i64 593, double* %35, i32 27, i32 0, i32 1, i32 0, i8* getelementptr inbounds ([5 x i8]* @load_namestr, i32 0, i32 0)), !llfi_injectfault !2
  %36 = getelementptr double* %fi37, i64 %fi33, !llfi_index !595
  %fi38 = call double* @injectFault3(i64 594, double* %36, i32 29, i32 0, i32 1, i32 0, i8* getelementptr inbounds ([14 x i8]* @getelementptr_namestr, i32 0, i32 0)), !llfi_injectfault !2
  store double 0.000000e+00, double* %fi38, align 8, !llfi_index !596
  br label %37, !llfi_index !597

; <label>:37                                      ; preds = %28
  %38 = load i32* %fi11, align 4, !llfi_index !598
  %fi39 = call i32 @injectFault5(i64 597, i32 %38, i32 27, i32 0, i32 1, i32 0, i8* getelementptr inbounds ([5 x i8]* @load_namestr, i32 0, i32 0)), !llfi_injectfault !2
  %39 = add nsw i32 %fi39, 1, !llfi_index !599
  %fi40 = call i32 @injectFault5(i64 598, i32 %39, i32 8, i32 0, i32 1, i32 0, i8* getelementptr inbounds ([4 x i8]* @add_namestr, i32 0, i32 0)), !llfi_injectfault !2
  store i32 %fi40, i32* %fi11, align 4, !llfi_index !600
  br label %23, !llfi_index !601

; <label>:40                                      ; preds = %23
  br label %41, !llfi_index !602

; <label>:41                                      ; preds = %40
  %42 = load i32* %fi10, align 4, !llfi_index !603
  %fi41 = call i32 @injectFault5(i64 602, i32 %42, i32 27, i32 0, i32 1, i32 0, i8* getelementptr inbounds ([5 x i8]* @load_namestr, i32 0, i32 0)), !llfi_injectfault !2
  %43 = add nsw i32 %fi41, 1, !llfi_index !604
  %fi42 = call i32 @injectFault5(i64 603, i32 %43, i32 8, i32 0, i32 1, i32 0, i8* getelementptr inbounds ([4 x i8]* @add_namestr, i32 0, i32 0)), !llfi_injectfault !2
  store i32 %fi42, i32* %fi10, align 4, !llfi_index !605
  br label %17, !llfi_index !606

; <label>:44                                      ; preds = %17
  store i32 0, i32* %fi10, align 4, !llfi_index !607
  br label %45, !llfi_index !608

; <label>:45                                      ; preds = %62, %44
  %46 = load i32* %fi10, align 4, !llfi_index !609
  %fi43 = call i32 @injectFault5(i64 608, i32 %46, i32 27, i32 0, i32 1, i32 0, i8* getelementptr inbounds ([5 x i8]* @load_namestr, i32 0, i32 0)), !llfi_injectfault !2
  %47 = load i32* %fi2, align 4, !llfi_index !610
  %fi44 = call i32 @injectFault5(i64 609, i32 %47, i32 27, i32 0, i32 1, i32 0, i8* getelementptr inbounds ([5 x i8]* @load_namestr, i32 0, i32 0)), !llfi_injectfault !2
  %48 = sub nsw i32 %fi44, 1, !llfi_index !611
  %fi45 = call i32 @injectFault5(i64 610, i32 %48, i32 10, i32 0, i32 1, i32 0, i8* getelementptr inbounds ([4 x i8]* @sub_namestr, i32 0, i32 0)), !llfi_injectfault !2
  %49 = icmp sle i32 %fi43, %fi45, !llfi_index !612
  %fi46 = call i1 @injectFault4(i64 611, i1 %49, i32 46, i32 0, i32 1, i32 0, i8* getelementptr inbounds ([5 x i8]* @icmp_namestr, i32 0, i32 0)), !llfi_injectfault !2
  br i1 %fi46, label %50, label %65, !llfi_index !613

; <label>:50                                      ; preds = %45
  %51 = load i32* %fi10, align 4, !llfi_index !614
  %fi47 = call i32 @injectFault5(i64 613, i32 %51, i32 27, i32 0, i32 1, i32 0, i8* getelementptr inbounds ([5 x i8]* @load_namestr, i32 0, i32 0)), !llfi_injectfault !2
  %52 = sext i32 %fi47 to i64, !llfi_index !615
  %fi48 = call i64 @injectFault6(i64 614, i64 %52, i32 35, i32 0, i32 1, i32 0, i8* getelementptr inbounds ([5 x i8]* @sext_namestr, i32 0, i32 0)), !llfi_injectfault !2
  %53 = load double** %fi5, align 8, !llfi_index !616
  %fi49 = call double* @injectFault3(i64 615, double* %53, i32 27, i32 0, i32 1, i32 0, i8* getelementptr inbounds ([5 x i8]* @load_namestr, i32 0, i32 0)), !llfi_injectfault !2
  %54 = getelementptr double* %fi49, i64 %fi48, !llfi_index !617
  %fi50 = call double* @injectFault3(i64 616, double* %54, i32 29, i32 0, i32 1, i32 0, i8* getelementptr inbounds ([14 x i8]* @getelementptr_namestr, i32 0, i32 0)), !llfi_injectfault !2
  %55 = load double* %fi50, align 8, !llfi_index !618
  %fi51 = call double @injectFault0(i64 617, double %55, i32 27, i32 0, i32 1, i32 0, i8* getelementptr inbounds ([5 x i8]* @load_namestr, i32 0, i32 0)), !llfi_injectfault !2
  %56 = load i32* %fi10, align 4, !llfi_index !619
  %fi52 = call i32 @injectFault5(i64 618, i32 %56, i32 27, i32 0, i32 1, i32 0, i8* getelementptr inbounds ([5 x i8]* @load_namestr, i32 0, i32 0)), !llfi_injectfault !2
  %57 = sext i32 %fi52 to i64, !llfi_index !620
  %fi53 = call i64 @injectFault6(i64 619, i64 %57, i32 35, i32 0, i32 1, i32 0, i8* getelementptr inbounds ([5 x i8]* @sext_namestr, i32 0, i32 0)), !llfi_injectfault !2
  %58 = load double*** %fi1, align 8, !llfi_index !621
  %fi54 = call double** @injectFault8(i64 620, double** %58, i32 27, i32 0, i32 1, i32 0, i8* getelementptr inbounds ([5 x i8]* @load_namestr, i32 0, i32 0)), !llfi_injectfault !2
  %59 = getelementptr double** %fi54, i64 0, !llfi_index !622
  %fi55 = call double** @injectFault8(i64 621, double** %59, i32 29, i32 0, i32 1, i32 0, i8* getelementptr inbounds ([14 x i8]* @getelementptr_namestr, i32 0, i32 0)), !llfi_injectfault !2
  %60 = load double** %fi55, align 8, !llfi_index !623
  %fi56 = call double* @injectFault3(i64 622, double* %60, i32 27, i32 0, i32 1, i32 0, i8* getelementptr inbounds ([5 x i8]* @load_namestr, i32 0, i32 0)), !llfi_injectfault !2
  %61 = getelementptr double* %fi56, i64 %fi53, !llfi_index !624
  %fi57 = call double* @injectFault3(i64 623, double* %61, i32 29, i32 0, i32 1, i32 0, i8* getelementptr inbounds ([14 x i8]* @getelementptr_namestr, i32 0, i32 0)), !llfi_injectfault !2
  store double %fi51, double* %fi57, align 8, !llfi_index !625
  br label %62, !llfi_index !626

; <label>:62                                      ; preds = %50
  %63 = load i32* %fi10, align 4, !llfi_index !627
  %fi58 = call i32 @injectFault5(i64 626, i32 %63, i32 27, i32 0, i32 1, i32 0, i8* getelementptr inbounds ([5 x i8]* @load_namestr, i32 0, i32 0)), !llfi_injectfault !2
  %64 = add nsw i32 %fi58, 1, !llfi_index !628
  %fi59 = call i32 @injectFault5(i64 627, i32 %64, i32 8, i32 0, i32 1, i32 0, i8* getelementptr inbounds ([4 x i8]* @add_namestr, i32 0, i32 0)), !llfi_injectfault !2
  store i32 %fi59, i32* %fi10, align 4, !llfi_index !629
  br label %45, !llfi_index !630

; <label>:65                                      ; preds = %45
  store i32 1, i32* %fi11, align 4, !llfi_index !631
  br label %66, !llfi_index !632

; <label>:66                                      ; preds = %160, %65
  %67 = load i32* %fi11, align 4, !llfi_index !633
  %fi66 = call i32 @injectFault5(i64 632, i32 %67, i32 27, i32 0, i32 1, i32 0, i8* getelementptr inbounds ([5 x i8]* @load_namestr, i32 0, i32 0)), !llfi_injectfault !2
  %68 = load i32* %fi2, align 4, !llfi_index !634
  %fi67 = call i32 @injectFault5(i64 633, i32 %68, i32 27, i32 0, i32 1, i32 0, i8* getelementptr inbounds ([5 x i8]* @load_namestr, i32 0, i32 0)), !llfi_injectfault !2
  %69 = sub nsw i32 %fi67, 1, !llfi_index !635
  %fi68 = call i32 @injectFault5(i64 634, i32 %69, i32 10, i32 0, i32 1, i32 0, i8* getelementptr inbounds ([4 x i8]* @sub_namestr, i32 0, i32 0)), !llfi_injectfault !2
  %70 = icmp sle i32 %fi66, %fi68, !llfi_index !636
  %fi69 = call i1 @injectFault4(i64 635, i1 %70, i32 46, i32 0, i32 1, i32 0, i8* getelementptr inbounds ([5 x i8]* @icmp_namestr, i32 0, i32 0)), !llfi_injectfault !2
  br i1 %fi69, label %71, label %163, !llfi_index !637

; <label>:71                                      ; preds = %66
  store i32 0, i32* %fi12, align 4, !llfi_index !638
  br label %72, !llfi_index !639

; <label>:72                                      ; preds = %85, %71
  %73 = load i32* %fi12, align 4, !llfi_index !640
  %fi70 = call i32 @injectFault5(i64 639, i32 %73, i32 27, i32 0, i32 1, i32 0, i8* getelementptr inbounds ([5 x i8]* @load_namestr, i32 0, i32 0)), !llfi_injectfault !2
  %74 = load i32* %fi3, align 4, !llfi_index !641
  %fi71 = call i32 @injectFault5(i64 640, i32 %74, i32 27, i32 0, i32 1, i32 0, i8* getelementptr inbounds ([5 x i8]* @load_namestr, i32 0, i32 0)), !llfi_injectfault !2
  %75 = sub nsw i32 %fi71, 1, !llfi_index !642
  %fi72 = call i32 @injectFault5(i64 641, i32 %75, i32 10, i32 0, i32 1, i32 0, i8* getelementptr inbounds ([4 x i8]* @sub_namestr, i32 0, i32 0)), !llfi_injectfault !2
  %76 = icmp sle i32 %fi70, %fi72, !llfi_index !643
  %fi73 = call i1 @injectFault4(i64 642, i1 %76, i32 46, i32 0, i32 1, i32 0, i8* getelementptr inbounds ([5 x i8]* @icmp_namestr, i32 0, i32 0)), !llfi_injectfault !2
  br i1 %fi73, label %77, label %88, !llfi_index !644

; <label>:77                                      ; preds = %72
  %78 = load i64** %fi8, align 8, !llfi_index !645
  %fi74 = call i64* @injectFault9(i64 644, i64* %78, i32 27, i32 0, i32 1, i32 0, i8* getelementptr inbounds ([5 x i8]* @load_namestr, i32 0, i32 0)), !llfi_injectfault !2
  %79 = call double @_Z7RanUnifPl(i64* %fi74), !llfi_index !646
  %fi75 = call double @injectFault0(i64 645, double %79, i32 49, i32 0, i32 1, i32 0, i8* getelementptr inbounds ([5 x i8]* @call_namestr, i32 0, i32 0)), !llfi_injectfault !2
  %80 = call double @_Z12CumNormalInvd(double %fi75), !llfi_index !647
  %fi76 = call double @injectFault0(i64 646, double %80, i32 49, i32 0, i32 1, i32 0, i8* getelementptr inbounds ([5 x i8]* @call_namestr, i32 0, i32 0)), !llfi_injectfault !2
  %81 = load i32* %fi12, align 4, !llfi_index !648
  %fi77 = call i32 @injectFault5(i64 647, i32 %81, i32 27, i32 0, i32 1, i32 0, i8* getelementptr inbounds ([5 x i8]* @load_namestr, i32 0, i32 0)), !llfi_injectfault !2
  %82 = sext i32 %fi77 to i64, !llfi_index !649
  %fi78 = call i64 @injectFault6(i64 648, i64 %82, i32 35, i32 0, i32 1, i32 0, i8* getelementptr inbounds ([5 x i8]* @sext_namestr, i32 0, i32 0)), !llfi_injectfault !2
  %83 = load double** %fi14, align 8, !llfi_index !650
  %fi79 = call double* @injectFault3(i64 649, double* %83, i32 27, i32 0, i32 1, i32 0, i8* getelementptr inbounds ([5 x i8]* @load_namestr, i32 0, i32 0)), !llfi_injectfault !2
  %84 = getelementptr double* %fi79, i64 %fi78, !llfi_index !651
  %fi80 = call double* @injectFault3(i64 650, double* %84, i32 29, i32 0, i32 1, i32 0, i8* getelementptr inbounds ([14 x i8]* @getelementptr_namestr, i32 0, i32 0)), !llfi_injectfault !2
  store double %fi76, double* %fi80, align 8, !llfi_index !652
  br label %85, !llfi_index !653

; <label>:85                                      ; preds = %77
  %86 = load i32* %fi12, align 4, !llfi_index !654
  %fi81 = call i32 @injectFault5(i64 653, i32 %86, i32 27, i32 0, i32 1, i32 0, i8* getelementptr inbounds ([5 x i8]* @load_namestr, i32 0, i32 0)), !llfi_injectfault !2
  %87 = add nsw i32 %fi81, 1, !llfi_index !655
  %fi82 = call i32 @injectFault5(i64 654, i32 %87, i32 8, i32 0, i32 1, i32 0, i8* getelementptr inbounds ([4 x i8]* @add_namestr, i32 0, i32 0)), !llfi_injectfault !2
  store i32 %fi82, i32* %fi12, align 4, !llfi_index !656
  br label %72, !llfi_index !657

; <label>:88                                      ; preds = %72
  store i32 0, i32* %fi12, align 4, !llfi_index !658
  br label %89, !llfi_index !659

; <label>:89                                      ; preds = %156, %88
  %90 = load i32* %fi12, align 4, !llfi_index !660
  %fi83 = call i32 @injectFault5(i64 659, i32 %90, i32 27, i32 0, i32 1, i32 0, i8* getelementptr inbounds ([5 x i8]* @load_namestr, i32 0, i32 0)), !llfi_injectfault !2
  %91 = load i32* %fi2, align 4, !llfi_index !661
  %fi84 = call i32 @injectFault5(i64 660, i32 %91, i32 27, i32 0, i32 1, i32 0, i8* getelementptr inbounds ([5 x i8]* @load_namestr, i32 0, i32 0)), !llfi_injectfault !2
  %92 = load i32* %fi11, align 4, !llfi_index !662
  %fi85 = call i32 @injectFault5(i64 661, i32 %92, i32 27, i32 0, i32 1, i32 0, i8* getelementptr inbounds ([5 x i8]* @load_namestr, i32 0, i32 0)), !llfi_injectfault !2
  %93 = add nsw i32 %fi85, 1, !llfi_index !663
  %fi86 = call i32 @injectFault5(i64 662, i32 %93, i32 8, i32 0, i32 1, i32 0, i8* getelementptr inbounds ([4 x i8]* @add_namestr, i32 0, i32 0)), !llfi_injectfault !2
  %94 = sub nsw i32 %fi84, %fi86, !llfi_index !664
  %fi87 = call i32 @injectFault5(i64 663, i32 %94, i32 10, i32 0, i32 1, i32 0, i8* getelementptr inbounds ([4 x i8]* @sub_namestr, i32 0, i32 0)), !llfi_injectfault !2
  %95 = icmp sle i32 %fi83, %fi87, !llfi_index !665
  %fi88 = call i1 @injectFault4(i64 664, i1 %95, i32 46, i32 0, i32 1, i32 0, i8* getelementptr inbounds ([5 x i8]* @icmp_namestr, i32 0, i32 0)), !llfi_injectfault !2
  br i1 %fi88, label %96, label %159, !llfi_index !666

; <label>:96                                      ; preds = %89
  store double 0.000000e+00, double* %fi, align 8, !llfi_index !667
  store i32 0, i32* %fi10, align 4, !llfi_index !668
  br label %97, !llfi_index !669

; <label>:97                                      ; preds = %120, %96
  %98 = load i32* %fi10, align 4, !llfi_index !670
  %fi89 = call i32 @injectFault5(i64 669, i32 %98, i32 27, i32 0, i32 1, i32 0, i8* getelementptr inbounds ([5 x i8]* @load_namestr, i32 0, i32 0)), !llfi_injectfault !2
  %99 = load i32* %fi3, align 4, !llfi_index !671
  %fi90 = call i32 @injectFault5(i64 670, i32 %99, i32 27, i32 0, i32 1, i32 0, i8* getelementptr inbounds ([5 x i8]* @load_namestr, i32 0, i32 0)), !llfi_injectfault !2
  %100 = sub nsw i32 %fi90, 1, !llfi_index !672
  %fi91 = call i32 @injectFault5(i64 671, i32 %100, i32 10, i32 0, i32 1, i32 0, i8* getelementptr inbounds ([4 x i8]* @sub_namestr, i32 0, i32 0)), !llfi_injectfault !2
  %101 = icmp sle i32 %fi89, %fi91, !llfi_index !673
  %fi92 = call i1 @injectFault4(i64 672, i1 %101, i32 46, i32 0, i32 1, i32 0, i8* getelementptr inbounds ([5 x i8]* @icmp_namestr, i32 0, i32 0)), !llfi_injectfault !2
  br i1 %fi92, label %102, label %123, !llfi_index !674

; <label>:102                                     ; preds = %97
  %103 = load i32* %fi12, align 4, !llfi_index !675
  %fi93 = call i32 @injectFault5(i64 674, i32 %103, i32 27, i32 0, i32 1, i32 0, i8* getelementptr inbounds ([5 x i8]* @load_namestr, i32 0, i32 0)), !llfi_injectfault !2
  %104 = sext i32 %fi93 to i64, !llfi_index !676
  %fi94 = call i64 @injectFault6(i64 675, i64 %104, i32 35, i32 0, i32 1, i32 0, i8* getelementptr inbounds ([5 x i8]* @sext_namestr, i32 0, i32 0)), !llfi_injectfault !2
  %105 = load i32* %fi10, align 4, !llfi_index !677
  %fi95 = call i32 @injectFault5(i64 676, i32 %105, i32 27, i32 0, i32 1, i32 0, i8* getelementptr inbounds ([5 x i8]* @load_namestr, i32 0, i32 0)), !llfi_injectfault !2
  %106 = sext i32 %fi95 to i64, !llfi_index !678
  %fi96 = call i64 @injectFault6(i64 677, i64 %106, i32 35, i32 0, i32 1, i32 0, i8* getelementptr inbounds ([5 x i8]* @sext_namestr, i32 0, i32 0)), !llfi_injectfault !2
  %107 = load double*** %fi7, align 8, !llfi_index !679
  %fi97 = call double** @injectFault8(i64 678, double** %107, i32 27, i32 0, i32 1, i32 0, i8* getelementptr inbounds ([5 x i8]* @load_namestr, i32 0, i32 0)), !llfi_injectfault !2
  %108 = getelementptr double** %fi97, i64 %fi96, !llfi_index !680
  %fi98 = call double** @injectFault8(i64 679, double** %108, i32 29, i32 0, i32 1, i32 0, i8* getelementptr inbounds ([14 x i8]* @getelementptr_namestr, i32 0, i32 0)), !llfi_injectfault !2
  %109 = load double** %fi98, align 8, !llfi_index !681
  %fi99 = call double* @injectFault3(i64 680, double* %109, i32 27, i32 0, i32 1, i32 0, i8* getelementptr inbounds ([5 x i8]* @load_namestr, i32 0, i32 0)), !llfi_injectfault !2
  %110 = getelementptr double* %fi99, i64 %fi94, !llfi_index !682
  %fi100 = call double* @injectFault3(i64 681, double* %110, i32 29, i32 0, i32 1, i32 0, i8* getelementptr inbounds ([14 x i8]* @getelementptr_namestr, i32 0, i32 0)), !llfi_injectfault !2
  %111 = load double* %fi100, align 8, !llfi_index !683
  %fi101 = call double @injectFault0(i64 682, double %111, i32 27, i32 0, i32 1, i32 0, i8* getelementptr inbounds ([5 x i8]* @load_namestr, i32 0, i32 0)), !llfi_injectfault !2
  %112 = load i32* %fi10, align 4, !llfi_index !684
  %fi102 = call i32 @injectFault5(i64 683, i32 %112, i32 27, i32 0, i32 1, i32 0, i8* getelementptr inbounds ([5 x i8]* @load_namestr, i32 0, i32 0)), !llfi_injectfault !2
  %113 = sext i32 %fi102 to i64, !llfi_index !685
  %fi103 = call i64 @injectFault6(i64 684, i64 %113, i32 35, i32 0, i32 1, i32 0, i8* getelementptr inbounds ([5 x i8]* @sext_namestr, i32 0, i32 0)), !llfi_injectfault !2
  %114 = load double** %fi14, align 8, !llfi_index !686
  %fi104 = call double* @injectFault3(i64 685, double* %114, i32 27, i32 0, i32 1, i32 0, i8* getelementptr inbounds ([5 x i8]* @load_namestr, i32 0, i32 0)), !llfi_injectfault !2
  %115 = getelementptr double* %fi104, i64 %fi103, !llfi_index !687
  %fi105 = call double* @injectFault3(i64 686, double* %115, i32 29, i32 0, i32 1, i32 0, i8* getelementptr inbounds ([14 x i8]* @getelementptr_namestr, i32 0, i32 0)), !llfi_injectfault !2
  %116 = load double* %fi105, align 8, !llfi_index !688
  %fi106 = call double @injectFault0(i64 687, double %116, i32 27, i32 0, i32 1, i32 0, i8* getelementptr inbounds ([5 x i8]* @load_namestr, i32 0, i32 0)), !llfi_injectfault !2
  %117 = fmul double %fi101, %fi106, !llfi_index !689
  %fi107 = call double @injectFault0(i64 688, double %117, i32 13, i32 0, i32 1, i32 0, i8* getelementptr inbounds ([5 x i8]* @fmul_namestr, i32 0, i32 0)), !llfi_injectfault !2
  %118 = load double* %fi, align 8, !llfi_index !690
  %fi108 = call double @injectFault0(i64 689, double %118, i32 27, i32 0, i32 1, i32 0, i8* getelementptr inbounds ([5 x i8]* @load_namestr, i32 0, i32 0)), !llfi_injectfault !2
  %119 = fadd double %fi108, %fi107, !llfi_index !691
  %fi109 = call double @injectFault0(i64 690, double %119, i32 9, i32 0, i32 1, i32 0, i8* getelementptr inbounds ([5 x i8]* @fadd_namestr, i32 0, i32 0)), !llfi_injectfault !2
  store double %fi109, double* %fi, align 8, !llfi_index !692
  br label %120, !llfi_index !693

; <label>:120                                     ; preds = %102
  %121 = load i32* %fi10, align 4, !llfi_index !694
  %fi110 = call i32 @injectFault5(i64 693, i32 %121, i32 27, i32 0, i32 1, i32 0, i8* getelementptr inbounds ([5 x i8]* @load_namestr, i32 0, i32 0)), !llfi_injectfault !2
  %122 = add nsw i32 %fi110, 1, !llfi_index !695
  %fi111 = call i32 @injectFault5(i64 694, i32 %122, i32 8, i32 0, i32 1, i32 0, i8* getelementptr inbounds ([4 x i8]* @add_namestr, i32 0, i32 0)), !llfi_injectfault !2
  store i32 %fi111, i32* %fi10, align 4, !llfi_index !696
  br label %97, !llfi_index !697

; <label>:123                                     ; preds = %97
  %124 = load i32* %fi12, align 4, !llfi_index !698
  %fi112 = call i32 @injectFault5(i64 697, i32 %124, i32 27, i32 0, i32 1, i32 0, i8* getelementptr inbounds ([5 x i8]* @load_namestr, i32 0, i32 0)), !llfi_injectfault !2
  %125 = add nsw i32 %fi112, 1, !llfi_index !699
  %fi113 = call i32 @injectFault5(i64 698, i32 %125, i32 8, i32 0, i32 1, i32 0, i8* getelementptr inbounds ([4 x i8]* @add_namestr, i32 0, i32 0)), !llfi_injectfault !2
  %126 = sext i32 %fi113 to i64, !llfi_index !700
  %fi114 = call i64 @injectFault6(i64 699, i64 %126, i32 35, i32 0, i32 1, i32 0, i8* getelementptr inbounds ([5 x i8]* @sext_namestr, i32 0, i32 0)), !llfi_injectfault !2
  %127 = load i32* %fi11, align 4, !llfi_index !701
  %fi115 = call i32 @injectFault5(i64 700, i32 %127, i32 27, i32 0, i32 1, i32 0, i8* getelementptr inbounds ([5 x i8]* @load_namestr, i32 0, i32 0)), !llfi_injectfault !2
  %128 = sub nsw i32 %fi115, 1, !llfi_index !702
  %fi116 = call i32 @injectFault5(i64 701, i32 %128, i32 10, i32 0, i32 1, i32 0, i8* getelementptr inbounds ([4 x i8]* @sub_namestr, i32 0, i32 0)), !llfi_injectfault !2
  %129 = sext i32 %fi116 to i64, !llfi_index !703
  %fi60 = call i64 @injectFault6(i64 702, i64 %129, i32 35, i32 0, i32 1, i32 0, i8* getelementptr inbounds ([5 x i8]* @sext_namestr, i32 0, i32 0)), !llfi_injectfault !2
  %130 = load double*** %fi1, align 8, !llfi_index !704
  %fi61 = call double** @injectFault8(i64 703, double** %130, i32 27, i32 0, i32 1, i32 0, i8* getelementptr inbounds ([5 x i8]* @load_namestr, i32 0, i32 0)), !llfi_injectfault !2
  %131 = getelementptr double** %fi61, i64 %fi60, !llfi_index !705
  %fi62 = call double** @injectFault8(i64 704, double** %131, i32 29, i32 0, i32 1, i32 0, i8* getelementptr inbounds ([14 x i8]* @getelementptr_namestr, i32 0, i32 0)), !llfi_injectfault !2
  %132 = load double** %fi62, align 8, !llfi_index !706
  %fi63 = call double* @injectFault3(i64 705, double* %132, i32 27, i32 0, i32 1, i32 0, i8* getelementptr inbounds ([5 x i8]* @load_namestr, i32 0, i32 0)), !llfi_injectfault !2
  %133 = getelementptr double* %fi63, i64 %fi114, !llfi_index !707
  %fi64 = call double* @injectFault3(i64 706, double* %133, i32 29, i32 0, i32 1, i32 0, i8* getelementptr inbounds ([14 x i8]* @getelementptr_namestr, i32 0, i32 0)), !llfi_injectfault !2
  %134 = load double* %fi64, align 8, !llfi_index !708
  %fi65 = call double @injectFault0(i64 707, double %134, i32 27, i32 0, i32 1, i32 0, i8* getelementptr inbounds ([5 x i8]* @load_namestr, i32 0, i32 0)), !llfi_injectfault !2
  %135 = load i32* %fi12, align 4, !llfi_index !709
  %fi117 = call i32 @injectFault5(i64 708, i32 %135, i32 27, i32 0, i32 1, i32 0, i8* getelementptr inbounds ([5 x i8]* @load_namestr, i32 0, i32 0)), !llfi_injectfault !2
  %136 = sext i32 %fi117 to i64, !llfi_index !710
  %fi118 = call i64 @injectFault6(i64 709, i64 %136, i32 35, i32 0, i32 1, i32 0, i8* getelementptr inbounds ([5 x i8]* @sext_namestr, i32 0, i32 0)), !llfi_injectfault !2
  %137 = load double** %fi6, align 8, !llfi_index !711
  %fi119 = call double* @injectFault3(i64 710, double* %137, i32 27, i32 0, i32 1, i32 0, i8* getelementptr inbounds ([5 x i8]* @load_namestr, i32 0, i32 0)), !llfi_injectfault !2
  %138 = getelementptr double* %fi119, i64 %fi118, !llfi_index !712
  %fi120 = call double* @injectFault3(i64 711, double* %138, i32 29, i32 0, i32 1, i32 0, i8* getelementptr inbounds ([14 x i8]* @getelementptr_namestr, i32 0, i32 0)), !llfi_injectfault !2
  %139 = load double* %fi120, align 8, !llfi_index !713
  %fi121 = call double @injectFault0(i64 712, double %139, i32 27, i32 0, i32 1, i32 0, i8* getelementptr inbounds ([5 x i8]* @load_namestr, i32 0, i32 0)), !llfi_injectfault !2
  %140 = load double* %fi13, align 8, !llfi_index !714
  %fi122 = call double @injectFault0(i64 713, double %140, i32 27, i32 0, i32 1, i32 0, i8* getelementptr inbounds ([5 x i8]* @load_namestr, i32 0, i32 0)), !llfi_injectfault !2
  %141 = fmul double %fi121, %fi122, !llfi_index !715
  %fi123 = call double @injectFault0(i64 714, double %141, i32 13, i32 0, i32 1, i32 0, i8* getelementptr inbounds ([5 x i8]* @fmul_namestr, i32 0, i32 0)), !llfi_injectfault !2
  %142 = fadd double %fi65, %fi123, !llfi_index !716
  %fi124 = call double @injectFault0(i64 715, double %142, i32 9, i32 0, i32 1, i32 0, i8* getelementptr inbounds ([5 x i8]* @fadd_namestr, i32 0, i32 0)), !llfi_injectfault !2
  %143 = load double* %fi13, align 8, !llfi_index !717
  %fi125 = call double @injectFault0(i64 716, double %143, i32 27, i32 0, i32 1, i32 0, i8* getelementptr inbounds ([5 x i8]* @load_namestr, i32 0, i32 0)), !llfi_injectfault !2
  %144 = call double @sqrt(double %fi125) #5, !llfi_index !718
  %fi126 = call double @injectFault0(i64 717, double %144, i32 49, i32 0, i32 1, i32 0, i8* getelementptr inbounds ([5 x i8]* @call_namestr, i32 0, i32 0)), !llfi_injectfault !2
  %145 = load double* %fi, align 8, !llfi_index !719
  %fi127 = call double @injectFault0(i64 718, double %145, i32 27, i32 0, i32 1, i32 0, i8* getelementptr inbounds ([5 x i8]* @load_namestr, i32 0, i32 0)), !llfi_injectfault !2
  %146 = fmul double %fi126, %fi127, !llfi_index !720
  %fi128 = call double @injectFault0(i64 719, double %146, i32 13, i32 0, i32 1, i32 0, i8* getelementptr inbounds ([5 x i8]* @fmul_namestr, i32 0, i32 0)), !llfi_injectfault !2
  %147 = fadd double %fi124, %fi128, !llfi_index !721
  %fi129 = call double @injectFault0(i64 720, double %147, i32 9, i32 0, i32 1, i32 0, i8* getelementptr inbounds ([5 x i8]* @fadd_namestr, i32 0, i32 0)), !llfi_injectfault !2
  %148 = load i32* %fi12, align 4, !llfi_index !722
  %fi130 = call i32 @injectFault5(i64 721, i32 %148, i32 27, i32 0, i32 1, i32 0, i8* getelementptr inbounds ([5 x i8]* @load_namestr, i32 0, i32 0)), !llfi_injectfault !2
  %149 = sext i32 %fi130 to i64, !llfi_index !723
  %fi131 = call i64 @injectFault6(i64 722, i64 %149, i32 35, i32 0, i32 1, i32 0, i8* getelementptr inbounds ([5 x i8]* @sext_namestr, i32 0, i32 0)), !llfi_injectfault !2
  %150 = load i32* %fi11, align 4, !llfi_index !724
  %fi132 = call i32 @injectFault5(i64 723, i32 %150, i32 27, i32 0, i32 1, i32 0, i8* getelementptr inbounds ([5 x i8]* @load_namestr, i32 0, i32 0)), !llfi_injectfault !2
  %151 = sext i32 %fi132 to i64, !llfi_index !725
  %fi133 = call i64 @injectFault6(i64 724, i64 %151, i32 35, i32 0, i32 1, i32 0, i8* getelementptr inbounds ([5 x i8]* @sext_namestr, i32 0, i32 0)), !llfi_injectfault !2
  %152 = load double*** %fi1, align 8, !llfi_index !726
  %fi134 = call double** @injectFault8(i64 725, double** %152, i32 27, i32 0, i32 1, i32 0, i8* getelementptr inbounds ([5 x i8]* @load_namestr, i32 0, i32 0)), !llfi_injectfault !2
  %153 = getelementptr double** %fi134, i64 %fi133, !llfi_index !727
  %fi135 = call double** @injectFault8(i64 726, double** %153, i32 29, i32 0, i32 1, i32 0, i8* getelementptr inbounds ([14 x i8]* @getelementptr_namestr, i32 0, i32 0)), !llfi_injectfault !2
  %154 = load double** %fi135, align 8, !llfi_index !728
  %fi136 = call double* @injectFault3(i64 727, double* %154, i32 27, i32 0, i32 1, i32 0, i8* getelementptr inbounds ([5 x i8]* @load_namestr, i32 0, i32 0)), !llfi_injectfault !2
  %155 = getelementptr double* %fi136, i64 %fi131, !llfi_index !729
  %fi137 = call double* @injectFault3(i64 728, double* %155, i32 29, i32 0, i32 1, i32 0, i8* getelementptr inbounds ([14 x i8]* @getelementptr_namestr, i32 0, i32 0)), !llfi_injectfault !2
  store double %fi129, double* %fi137, align 8, !llfi_index !730
  br label %156, !llfi_index !731

; <label>:156                                     ; preds = %123
  %157 = load i32* %fi12, align 4, !llfi_index !732
  %fi138 = call i32 @injectFault5(i64 731, i32 %157, i32 27, i32 0, i32 1, i32 0, i8* getelementptr inbounds ([5 x i8]* @load_namestr, i32 0, i32 0)), !llfi_injectfault !2
  %158 = add nsw i32 %fi138, 1, !llfi_index !733
  %fi139 = call i32 @injectFault5(i64 732, i32 %158, i32 8, i32 0, i32 1, i32 0, i8* getelementptr inbounds ([4 x i8]* @add_namestr, i32 0, i32 0)), !llfi_injectfault !2
  store i32 %fi139, i32* %fi12, align 4, !llfi_index !734
  br label %89, !llfi_index !735

; <label>:159                                     ; preds = %89
  br label %160, !llfi_index !736

; <label>:160                                     ; preds = %159
  %161 = load i32* %fi11, align 4, !llfi_index !737
  %fi140 = call i32 @injectFault5(i64 736, i32 %161, i32 27, i32 0, i32 1, i32 0, i8* getelementptr inbounds ([5 x i8]* @load_namestr, i32 0, i32 0)), !llfi_injectfault !2
  %162 = add nsw i32 %fi140, 1, !llfi_index !738
  %fi141 = call i32 @injectFault5(i64 737, i32 %162, i32 8, i32 0, i32 1, i32 0, i8* getelementptr inbounds ([4 x i8]* @add_namestr, i32 0, i32 0)), !llfi_injectfault !2
  store i32 %fi141, i32* %fi11, align 4, !llfi_index !739
  br label %66, !llfi_index !740

; <label>:163                                     ; preds = %66
  %164 = load double** %fi14, align 8, !llfi_index !741
  %fi142 = call double* @injectFault3(i64 740, double* %164, i32 27, i32 0, i32 1, i32 0, i8* getelementptr inbounds ([5 x i8]* @load_namestr, i32 0, i32 0)), !llfi_injectfault !2
  %165 = load i32* %fi3, align 4, !llfi_index !742
  %fi143 = call i32 @injectFault5(i64 741, i32 %165, i32 27, i32 0, i32 1, i32 0, i8* getelementptr inbounds ([5 x i8]* @load_namestr, i32 0, i32 0)), !llfi_injectfault !2
  %166 = sub nsw i32 %fi143, 1, !llfi_index !743
  %fi144 = call i32 @injectFault5(i64 742, i32 %166, i32 10, i32 0, i32 1, i32 0, i8* getelementptr inbounds ([4 x i8]* @sub_namestr, i32 0, i32 0)), !llfi_injectfault !2
  %167 = sext i32 %fi144 to i64, !llfi_index !744
  %fi145 = call i64 @injectFault6(i64 743, i64 %167, i32 35, i32 0, i32 1, i32 0, i8* getelementptr inbounds ([5 x i8]* @sext_namestr, i32 0, i32 0)), !llfi_injectfault !2
  call void @_Z12free_dvectorPdll(double* %fi142, i64 0, i64 %fi145), !llfi_index !745
  store i32 1, i32* %fi9, align 4, !llfi_index !746
  %168 = load i32* %fi9, align 4, !llfi_index !747
  %fi146 = call i32 @injectFault5(i64 746, i32 %168, i32 27, i32 0, i32 1, i32 0, i8* getelementptr inbounds ([5 x i8]* @load_namestr, i32 0, i32 0)), !llfi_injectfault !2
  ret i32 %fi146, !llfi_index !748
}

; Function Attrs: nounwind uwtable
define i32 @_Z11HJM_FactorsPPdiiS_S0_(double** %ppdFactors, i32 %iN, i32 %iFactors, double* %pdVol, double** %ppdFacBreak) #0 {
  %1 = alloca double**, align 8, !llfi_index !749
  %fi39 = call double*** @injectFault1(i64 748, double*** %1, i32 26, i32 0, i32 1, i32 0, i8* getelementptr inbounds ([7 x i8]* @alloca_namestr, i32 0, i32 0)), !llfi_injectfault !2
  %2 = alloca i32, align 4, !llfi_index !750
  %fi40 = call i32* @injectFault2(i64 749, i32* %2, i32 26, i32 0, i32 1, i32 0, i8* getelementptr inbounds ([7 x i8]* @alloca_namestr, i32 0, i32 0)), !llfi_injectfault !2
  %3 = alloca i32, align 4, !llfi_index !751
  %fi41 = call i32* @injectFault2(i64 750, i32* %3, i32 26, i32 0, i32 1, i32 0, i8* getelementptr inbounds ([7 x i8]* @alloca_namestr, i32 0, i32 0)), !llfi_injectfault !2
  %4 = alloca double*, align 8, !llfi_index !752
  %fi42 = call double** @injectFault8(i64 751, double** %4, i32 26, i32 0, i32 1, i32 0, i8* getelementptr inbounds ([7 x i8]* @alloca_namestr, i32 0, i32 0)), !llfi_injectfault !2
  %5 = alloca double**, align 8, !llfi_index !753
  %fi43 = call double*** @injectFault1(i64 752, double*** %5, i32 26, i32 0, i32 1, i32 0, i8* getelementptr inbounds ([7 x i8]* @alloca_namestr, i32 0, i32 0)), !llfi_injectfault !2
  %i = alloca i32, align 4, !llfi_index !754
  %fi44 = call i32* @injectFault2(i64 753, i32* %i, i32 26, i32 0, i32 1, i32 0, i8* getelementptr inbounds ([7 x i8]* @alloca_namestr, i32 0, i32 0)), !llfi_injectfault !2
  %j = alloca i32, align 4, !llfi_index !755
  %fi45 = call i32* @injectFault2(i64 754, i32* %j, i32 26, i32 0, i32 1, i32 0, i8* getelementptr inbounds ([7 x i8]* @alloca_namestr, i32 0, i32 0)), !llfi_injectfault !2
  %iSuccess = alloca i32, align 4, !llfi_index !756
  %fi46 = call i32* @injectFault2(i64 755, i32* %iSuccess, i32 26, i32 0, i32 1, i32 0, i8* getelementptr inbounds ([7 x i8]* @alloca_namestr, i32 0, i32 0)), !llfi_injectfault !2
  store double** %ppdFactors, double*** %fi39, align 8, !llfi_index !757
  store i32 %iN, i32* %fi40, align 4, !llfi_index !758
  store i32 %iFactors, i32* %fi41, align 4, !llfi_index !759
  store double* %pdVol, double** %fi42, align 8, !llfi_index !760
  store double** %ppdFacBreak, double*** %fi43, align 8, !llfi_index !761
  store i32 0, i32* %fi46, align 4, !llfi_index !762
  store i32 0, i32* %fi44, align 4, !llfi_index !763
  br label %6, !llfi_index !764

; <label>:6                                       ; preds = %52, %0
  %7 = load i32* %fi44, align 4, !llfi_index !765
  %fi47 = call i32 @injectFault5(i64 764, i32 %7, i32 27, i32 0, i32 1, i32 0, i8* getelementptr inbounds ([5 x i8]* @load_namestr, i32 0, i32 0)), !llfi_injectfault !2
  %8 = load i32* %fi41, align 4, !llfi_index !766
  %fi48 = call i32 @injectFault5(i64 765, i32 %8, i32 27, i32 0, i32 1, i32 0, i8* getelementptr inbounds ([5 x i8]* @load_namestr, i32 0, i32 0)), !llfi_injectfault !2
  %9 = sub nsw i32 %fi48, 1, !llfi_index !767
  %fi49 = call i32 @injectFault5(i64 766, i32 %9, i32 10, i32 0, i32 1, i32 0, i8* getelementptr inbounds ([4 x i8]* @sub_namestr, i32 0, i32 0)), !llfi_injectfault !2
  %10 = icmp sle i32 %fi47, %fi49, !llfi_index !768
  %fi50 = call i1 @injectFault4(i64 767, i1 %10, i32 46, i32 0, i32 1, i32 0, i8* getelementptr inbounds ([5 x i8]* @icmp_namestr, i32 0, i32 0)), !llfi_injectfault !2
  br i1 %fi50, label %11, label %55, !llfi_index !769

; <label>:11                                      ; preds = %6
  store i32 0, i32* %fi45, align 4, !llfi_index !770
  br label %12, !llfi_index !771

; <label>:12                                      ; preds = %48, %11
  %13 = load i32* %fi45, align 4, !llfi_index !772
  %fi = call i32 @injectFault5(i64 771, i32 %13, i32 27, i32 0, i32 1, i32 0, i8* getelementptr inbounds ([5 x i8]* @load_namestr, i32 0, i32 0)), !llfi_injectfault !2
  %14 = load i32* %fi40, align 4, !llfi_index !773
  %fi1 = call i32 @injectFault5(i64 772, i32 %14, i32 27, i32 0, i32 1, i32 0, i8* getelementptr inbounds ([5 x i8]* @load_namestr, i32 0, i32 0)), !llfi_injectfault !2
  %15 = sub nsw i32 %fi1, 2, !llfi_index !774
  %fi2 = call i32 @injectFault5(i64 773, i32 %15, i32 10, i32 0, i32 1, i32 0, i8* getelementptr inbounds ([4 x i8]* @sub_namestr, i32 0, i32 0)), !llfi_injectfault !2
  %16 = icmp sle i32 %fi, %fi2, !llfi_index !775
  %fi3 = call i1 @injectFault4(i64 774, i1 %16, i32 46, i32 0, i32 1, i32 0, i8* getelementptr inbounds ([5 x i8]* @icmp_namestr, i32 0, i32 0)), !llfi_injectfault !2
  br i1 %fi3, label %17, label %51, !llfi_index !776

; <label>:17                                      ; preds = %12
  %18 = load i32* %fi45, align 4, !llfi_index !777
  %fi5 = call i32 @injectFault5(i64 776, i32 %18, i32 27, i32 0, i32 1, i32 0, i8* getelementptr inbounds ([5 x i8]* @load_namestr, i32 0, i32 0)), !llfi_injectfault !2
  %19 = sext i32 %fi5 to i64, !llfi_index !778
  %fi6 = call i64 @injectFault6(i64 777, i64 %19, i32 35, i32 0, i32 1, i32 0, i8* getelementptr inbounds ([5 x i8]* @sext_namestr, i32 0, i32 0)), !llfi_injectfault !2
  %20 = load i32* %fi44, align 4, !llfi_index !779
  %fi7 = call i32 @injectFault5(i64 778, i32 %20, i32 27, i32 0, i32 1, i32 0, i8* getelementptr inbounds ([5 x i8]* @load_namestr, i32 0, i32 0)), !llfi_injectfault !2
  %21 = sext i32 %fi7 to i64, !llfi_index !780
  %fi8 = call i64 @injectFault6(i64 779, i64 %21, i32 35, i32 0, i32 1, i32 0, i8* getelementptr inbounds ([5 x i8]* @sext_namestr, i32 0, i32 0)), !llfi_injectfault !2
  %22 = load double*** %fi43, align 8, !llfi_index !781
  %fi9 = call double** @injectFault8(i64 780, double** %22, i32 27, i32 0, i32 1, i32 0, i8* getelementptr inbounds ([5 x i8]* @load_namestr, i32 0, i32 0)), !llfi_injectfault !2
  %23 = getelementptr double** %fi9, i64 %fi8, !llfi_index !782
  %fi10 = call double** @injectFault8(i64 781, double** %23, i32 29, i32 0, i32 1, i32 0, i8* getelementptr inbounds ([14 x i8]* @getelementptr_namestr, i32 0, i32 0)), !llfi_injectfault !2
  %24 = load double** %fi10, align 8, !llfi_index !783
  %fi11 = call double* @injectFault3(i64 782, double* %24, i32 27, i32 0, i32 1, i32 0, i8* getelementptr inbounds ([5 x i8]* @load_namestr, i32 0, i32 0)), !llfi_injectfault !2
  %25 = getelementptr double* %fi11, i64 %fi6, !llfi_index !784
  %fi12 = call double* @injectFault3(i64 783, double* %25, i32 29, i32 0, i32 1, i32 0, i8* getelementptr inbounds ([14 x i8]* @getelementptr_namestr, i32 0, i32 0)), !llfi_injectfault !2
  %26 = load double* %fi12, align 8, !llfi_index !785
  %fi13 = call double @injectFault0(i64 784, double %26, i32 27, i32 0, i32 1, i32 0, i8* getelementptr inbounds ([5 x i8]* @load_namestr, i32 0, i32 0)), !llfi_injectfault !2
  %27 = load i32* %fi45, align 4, !llfi_index !786
  %fi14 = call i32 @injectFault5(i64 785, i32 %27, i32 27, i32 0, i32 1, i32 0, i8* getelementptr inbounds ([5 x i8]* @load_namestr, i32 0, i32 0)), !llfi_injectfault !2
  %28 = sext i32 %fi14 to i64, !llfi_index !787
  %fi15 = call i64 @injectFault6(i64 786, i64 %28, i32 35, i32 0, i32 1, i32 0, i8* getelementptr inbounds ([5 x i8]* @sext_namestr, i32 0, i32 0)), !llfi_injectfault !2
  %29 = load double** %fi42, align 8, !llfi_index !788
  %fi16 = call double* @injectFault3(i64 787, double* %29, i32 27, i32 0, i32 1, i32 0, i8* getelementptr inbounds ([5 x i8]* @load_namestr, i32 0, i32 0)), !llfi_injectfault !2
  %30 = getelementptr double* %fi16, i64 %fi15, !llfi_index !789
  %fi17 = call double* @injectFault3(i64 788, double* %30, i32 29, i32 0, i32 1, i32 0, i8* getelementptr inbounds ([14 x i8]* @getelementptr_namestr, i32 0, i32 0)), !llfi_injectfault !2
  %31 = load double* %fi17, align 8, !llfi_index !790
  %fi18 = call double @injectFault0(i64 789, double %31, i32 27, i32 0, i32 1, i32 0, i8* getelementptr inbounds ([5 x i8]* @load_namestr, i32 0, i32 0)), !llfi_injectfault !2
  %32 = fmul double %fi13, %fi18, !llfi_index !791
  %fi19 = call double @injectFault0(i64 790, double %32, i32 13, i32 0, i32 1, i32 0, i8* getelementptr inbounds ([5 x i8]* @fmul_namestr, i32 0, i32 0)), !llfi_injectfault !2
  %33 = load i32* %fi45, align 4, !llfi_index !792
  %fi4 = call i32 @injectFault5(i64 791, i32 %33, i32 27, i32 0, i32 1, i32 0, i8* getelementptr inbounds ([5 x i8]* @load_namestr, i32 0, i32 0)), !llfi_injectfault !2
  %34 = sext i32 %fi4 to i64, !llfi_index !793
  %fi20 = call i64 @injectFault6(i64 792, i64 %34, i32 35, i32 0, i32 1, i32 0, i8* getelementptr inbounds ([5 x i8]* @sext_namestr, i32 0, i32 0)), !llfi_injectfault !2
  %35 = load double** %fi42, align 8, !llfi_index !794
  %fi21 = call double* @injectFault3(i64 793, double* %35, i32 27, i32 0, i32 1, i32 0, i8* getelementptr inbounds ([5 x i8]* @load_namestr, i32 0, i32 0)), !llfi_injectfault !2
  %36 = getelementptr double* %fi21, i64 %fi20, !llfi_index !795
  %fi22 = call double* @injectFault3(i64 794, double* %36, i32 29, i32 0, i32 1, i32 0, i8* getelementptr inbounds ([14 x i8]* @getelementptr_namestr, i32 0, i32 0)), !llfi_injectfault !2
  %37 = load double* %fi22, align 8, !llfi_index !796
  %fi23 = call double @injectFault0(i64 795, double %37, i32 27, i32 0, i32 1, i32 0, i8* getelementptr inbounds ([5 x i8]* @load_namestr, i32 0, i32 0)), !llfi_injectfault !2
  %38 = fmul double %fi19, %fi23, !llfi_index !797
  %fi24 = call double @injectFault0(i64 796, double %38, i32 13, i32 0, i32 1, i32 0, i8* getelementptr inbounds ([5 x i8]* @fmul_namestr, i32 0, i32 0)), !llfi_injectfault !2
  %39 = call double @sqrt(double %fi24) #5, !llfi_index !798
  %fi25 = call double @injectFault0(i64 797, double %39, i32 49, i32 0, i32 1, i32 0, i8* getelementptr inbounds ([5 x i8]* @call_namestr, i32 0, i32 0)), !llfi_injectfault !2
  %40 = load i32* %fi45, align 4, !llfi_index !799
  %fi26 = call i32 @injectFault5(i64 798, i32 %40, i32 27, i32 0, i32 1, i32 0, i8* getelementptr inbounds ([5 x i8]* @load_namestr, i32 0, i32 0)), !llfi_injectfault !2
  %41 = sext i32 %fi26 to i64, !llfi_index !800
  %fi27 = call i64 @injectFault6(i64 799, i64 %41, i32 35, i32 0, i32 1, i32 0, i8* getelementptr inbounds ([5 x i8]* @sext_namestr, i32 0, i32 0)), !llfi_injectfault !2
  %42 = load i32* %fi44, align 4, !llfi_index !801
  %fi28 = call i32 @injectFault5(i64 800, i32 %42, i32 27, i32 0, i32 1, i32 0, i8* getelementptr inbounds ([5 x i8]* @load_namestr, i32 0, i32 0)), !llfi_injectfault !2
  %43 = sext i32 %fi28 to i64, !llfi_index !802
  %fi29 = call i64 @injectFault6(i64 801, i64 %43, i32 35, i32 0, i32 1, i32 0, i8* getelementptr inbounds ([5 x i8]* @sext_namestr, i32 0, i32 0)), !llfi_injectfault !2
  %44 = load double*** %fi39, align 8, !llfi_index !803
  %fi30 = call double** @injectFault8(i64 802, double** %44, i32 27, i32 0, i32 1, i32 0, i8* getelementptr inbounds ([5 x i8]* @load_namestr, i32 0, i32 0)), !llfi_injectfault !2
  %45 = getelementptr double** %fi30, i64 %fi29, !llfi_index !804
  %fi31 = call double** @injectFault8(i64 803, double** %45, i32 29, i32 0, i32 1, i32 0, i8* getelementptr inbounds ([14 x i8]* @getelementptr_namestr, i32 0, i32 0)), !llfi_injectfault !2
  %46 = load double** %fi31, align 8, !llfi_index !805
  %fi32 = call double* @injectFault3(i64 804, double* %46, i32 27, i32 0, i32 1, i32 0, i8* getelementptr inbounds ([5 x i8]* @load_namestr, i32 0, i32 0)), !llfi_injectfault !2
  %47 = getelementptr double* %fi32, i64 %fi27, !llfi_index !806
  %fi33 = call double* @injectFault3(i64 805, double* %47, i32 29, i32 0, i32 1, i32 0, i8* getelementptr inbounds ([14 x i8]* @getelementptr_namestr, i32 0, i32 0)), !llfi_injectfault !2
  store double %fi25, double* %fi33, align 8, !llfi_index !807
  br label %48, !llfi_index !808

; <label>:48                                      ; preds = %17
  %49 = load i32* %fi45, align 4, !llfi_index !809
  %fi34 = call i32 @injectFault5(i64 808, i32 %49, i32 27, i32 0, i32 1, i32 0, i8* getelementptr inbounds ([5 x i8]* @load_namestr, i32 0, i32 0)), !llfi_injectfault !2
  %50 = add nsw i32 %fi34, 1, !llfi_index !810
  %fi35 = call i32 @injectFault5(i64 809, i32 %50, i32 8, i32 0, i32 1, i32 0, i8* getelementptr inbounds ([4 x i8]* @add_namestr, i32 0, i32 0)), !llfi_injectfault !2
  store i32 %fi35, i32* %fi45, align 4, !llfi_index !811
  br label %12, !llfi_index !812

; <label>:51                                      ; preds = %12
  br label %52, !llfi_index !813

; <label>:52                                      ; preds = %51
  %53 = load i32* %fi44, align 4, !llfi_index !814
  %fi36 = call i32 @injectFault5(i64 813, i32 %53, i32 27, i32 0, i32 1, i32 0, i8* getelementptr inbounds ([5 x i8]* @load_namestr, i32 0, i32 0)), !llfi_injectfault !2
  %54 = add nsw i32 %fi36, 1, !llfi_index !815
  %fi37 = call i32 @injectFault5(i64 814, i32 %54, i32 8, i32 0, i32 1, i32 0, i8* getelementptr inbounds ([4 x i8]* @add_namestr, i32 0, i32 0)), !llfi_injectfault !2
  store i32 %fi37, i32* %fi44, align 4, !llfi_index !816
  br label %6, !llfi_index !817

; <label>:55                                      ; preds = %6
  store i32 1, i32* %fi46, align 4, !llfi_index !818
  %56 = load i32* %fi46, align 4, !llfi_index !819
  %fi38 = call i32 @injectFault5(i64 818, i32 %56, i32 27, i32 0, i32 1, i32 0, i8* getelementptr inbounds ([5 x i8]* @load_namestr, i32 0, i32 0)), !llfi_injectfault !2
  ret i32 %fi38, !llfi_index !820
}

; Function Attrs: nounwind
declare double @sqrt(double) #2

; Function Attrs: uwtable
define i32 @_Z16HJM_CorrelationsPPdiiS0_(double** %ppdHJMCorr, i32 %iN, i32 %iFactors, double** %ppdFactors) #3 {
  %1 = alloca double**, align 8, !llfi_index !821
  %fi = call double*** @injectFault1(i64 820, double*** %1, i32 26, i32 0, i32 1, i32 0, i8* getelementptr inbounds ([7 x i8]* @alloca_namestr, i32 0, i32 0)), !llfi_injectfault !2
  %2 = alloca i32, align 4, !llfi_index !822
  %fi1 = call i32* @injectFault2(i64 821, i32* %2, i32 26, i32 0, i32 1, i32 0, i8* getelementptr inbounds ([7 x i8]* @alloca_namestr, i32 0, i32 0)), !llfi_injectfault !2
  %3 = alloca i32, align 4, !llfi_index !823
  %fi2 = call i32* @injectFault2(i64 822, i32* %3, i32 26, i32 0, i32 1, i32 0, i8* getelementptr inbounds ([7 x i8]* @alloca_namestr, i32 0, i32 0)), !llfi_injectfault !2
  %4 = alloca double**, align 8, !llfi_index !824
  %fi3 = call double*** @injectFault1(i64 823, double*** %4, i32 26, i32 0, i32 1, i32 0, i8* getelementptr inbounds ([7 x i8]* @alloca_namestr, i32 0, i32 0)), !llfi_injectfault !2
  %iSuccess = alloca i32, align 4, !llfi_index !825
  %fi4 = call i32* @injectFault2(i64 824, i32* %iSuccess, i32 26, i32 0, i32 1, i32 0, i8* getelementptr inbounds ([7 x i8]* @alloca_namestr, i32 0, i32 0)), !llfi_injectfault !2
  %i = alloca i32, align 4, !llfi_index !826
  %fi5 = call i32* @injectFault2(i64 825, i32* %i, i32 26, i32 0, i32 1, i32 0, i8* getelementptr inbounds ([7 x i8]* @alloca_namestr, i32 0, i32 0)), !llfi_injectfault !2
  %j = alloca i32, align 4, !llfi_index !827
  %fi6 = call i32* @injectFault2(i64 826, i32* %j, i32 26, i32 0, i32 1, i32 0, i8* getelementptr inbounds ([7 x i8]* @alloca_namestr, i32 0, i32 0)), !llfi_injectfault !2
  %l = alloca i32, align 4, !llfi_index !828
  %fi7 = call i32* @injectFault2(i64 827, i32* %l, i32 26, i32 0, i32 1, i32 0, i8* getelementptr inbounds ([7 x i8]* @alloca_namestr, i32 0, i32 0)), !llfi_injectfault !2
  %pdTotalVol = alloca double*, align 8, !llfi_index !829
  %fi8 = call double** @injectFault8(i64 828, double** %pdTotalVol, i32 26, i32 0, i32 1, i32 0, i8* getelementptr inbounds ([7 x i8]* @alloca_namestr, i32 0, i32 0)), !llfi_injectfault !2
  %ppdWeights = alloca double**, align 8, !llfi_index !830
  %fi9 = call double*** @injectFault1(i64 829, double*** %ppdWeights, i32 26, i32 0, i32 1, i32 0, i8* getelementptr inbounds ([7 x i8]* @alloca_namestr, i32 0, i32 0)), !llfi_injectfault !2
  store double** %ppdHJMCorr, double*** %fi, align 8, !llfi_index !831
  store i32 %iN, i32* %fi1, align 4, !llfi_index !832
  store i32 %iFactors, i32* %fi2, align 4, !llfi_index !833
  store double** %ppdFactors, double*** %fi3, align 8, !llfi_index !834
  store i32 0, i32* %fi4, align 4, !llfi_index !835
  %5 = load i32* %fi1, align 4, !llfi_index !836
  %fi10 = call i32 @injectFault5(i64 835, i32 %5, i32 27, i32 0, i32 1, i32 0, i8* getelementptr inbounds ([5 x i8]* @load_namestr, i32 0, i32 0)), !llfi_injectfault !2
  %6 = sub nsw i32 %fi10, 2, !llfi_index !837
  %fi11 = call i32 @injectFault5(i64 836, i32 %6, i32 10, i32 0, i32 1, i32 0, i8* getelementptr inbounds ([4 x i8]* @sub_namestr, i32 0, i32 0)), !llfi_injectfault !2
  %7 = sext i32 %fi11 to i64, !llfi_index !838
  %fi12 = call i64 @injectFault6(i64 837, i64 %7, i32 35, i32 0, i32 1, i32 0, i8* getelementptr inbounds ([5 x i8]* @sext_namestr, i32 0, i32 0)), !llfi_injectfault !2
  %8 = call double* @_Z7dvectorll(i64 0, i64 %fi12), !llfi_index !839
  %fi13 = call double* @injectFault3(i64 838, double* %8, i32 49, i32 0, i32 1, i32 0, i8* getelementptr inbounds ([5 x i8]* @call_namestr, i32 0, i32 0)), !llfi_injectfault !2
  store double* %fi13, double** %fi8, align 8, !llfi_index !840
  %9 = load i32* %fi2, align 4, !llfi_index !841
  %fi15 = call i32 @injectFault5(i64 840, i32 %9, i32 27, i32 0, i32 1, i32 0, i8* getelementptr inbounds ([5 x i8]* @load_namestr, i32 0, i32 0)), !llfi_injectfault !2
  %10 = sub nsw i32 %fi15, 1, !llfi_index !842
  %fi16 = call i32 @injectFault5(i64 841, i32 %10, i32 10, i32 0, i32 1, i32 0, i8* getelementptr inbounds ([4 x i8]* @sub_namestr, i32 0, i32 0)), !llfi_injectfault !2
  %11 = sext i32 %fi16 to i64, !llfi_index !843
  %fi17 = call i64 @injectFault6(i64 842, i64 %11, i32 35, i32 0, i32 1, i32 0, i8* getelementptr inbounds ([5 x i8]* @sext_namestr, i32 0, i32 0)), !llfi_injectfault !2
  %12 = load i32* %fi1, align 4, !llfi_index !844
  %fi18 = call i32 @injectFault5(i64 843, i32 %12, i32 27, i32 0, i32 1, i32 0, i8* getelementptr inbounds ([5 x i8]* @load_namestr, i32 0, i32 0)), !llfi_injectfault !2
  %13 = sub nsw i32 %fi18, 2, !llfi_index !845
  %fi19 = call i32 @injectFault5(i64 844, i32 %13, i32 10, i32 0, i32 1, i32 0, i8* getelementptr inbounds ([4 x i8]* @sub_namestr, i32 0, i32 0)), !llfi_injectfault !2
  %14 = sext i32 %fi19 to i64, !llfi_index !846
  %fi20 = call i64 @injectFault6(i64 845, i64 %14, i32 35, i32 0, i32 1, i32 0, i8* getelementptr inbounds ([5 x i8]* @sext_namestr, i32 0, i32 0)), !llfi_injectfault !2
  %15 = call double** @_Z7dmatrixllll(i64 0, i64 %fi17, i64 0, i64 %fi20), !llfi_index !847
  %fi21 = call double** @injectFault8(i64 846, double** %15, i32 49, i32 0, i32 1, i32 0, i8* getelementptr inbounds ([5 x i8]* @call_namestr, i32 0, i32 0)), !llfi_injectfault !2
  store double** %fi21, double*** %fi9, align 8, !llfi_index !848
  store i32 0, i32* %fi5, align 4, !llfi_index !849
  br label %16, !llfi_index !850

; <label>:16                                      ; preds = %71, %0
  %17 = load i32* %fi5, align 4, !llfi_index !851
  %fi14 = call i32 @injectFault5(i64 850, i32 %17, i32 27, i32 0, i32 1, i32 0, i8* getelementptr inbounds ([5 x i8]* @load_namestr, i32 0, i32 0)), !llfi_injectfault !2
  %18 = load i32* %fi1, align 4, !llfi_index !852
  %fi23 = call i32 @injectFault5(i64 851, i32 %18, i32 27, i32 0, i32 1, i32 0, i8* getelementptr inbounds ([5 x i8]* @load_namestr, i32 0, i32 0)), !llfi_injectfault !2
  %19 = sub nsw i32 %fi23, 2, !llfi_index !853
  %fi24 = call i32 @injectFault5(i64 852, i32 %19, i32 10, i32 0, i32 1, i32 0, i8* getelementptr inbounds ([4 x i8]* @sub_namestr, i32 0, i32 0)), !llfi_injectfault !2
  %20 = icmp sle i32 %fi14, %fi24, !llfi_index !854
  %fi25 = call i1 @injectFault4(i64 853, i1 %20, i32 46, i32 0, i32 1, i32 0, i8* getelementptr inbounds ([5 x i8]* @icmp_namestr, i32 0, i32 0)), !llfi_injectfault !2
  br i1 %fi25, label %21, label %74, !llfi_index !855

; <label>:21                                      ; preds = %16
  %22 = load i32* %fi5, align 4, !llfi_index !856
  %fi26 = call i32 @injectFault5(i64 855, i32 %22, i32 27, i32 0, i32 1, i32 0, i8* getelementptr inbounds ([5 x i8]* @load_namestr, i32 0, i32 0)), !llfi_injectfault !2
  %23 = sext i32 %fi26 to i64, !llfi_index !857
  %fi27 = call i64 @injectFault6(i64 856, i64 %23, i32 35, i32 0, i32 1, i32 0, i8* getelementptr inbounds ([5 x i8]* @sext_namestr, i32 0, i32 0)), !llfi_injectfault !2
  %24 = load double** %fi8, align 8, !llfi_index !858
  %fi28 = call double* @injectFault3(i64 857, double* %24, i32 27, i32 0, i32 1, i32 0, i8* getelementptr inbounds ([5 x i8]* @load_namestr, i32 0, i32 0)), !llfi_injectfault !2
  %25 = getelementptr double* %fi28, i64 %fi27, !llfi_index !859
  %fi29 = call double* @injectFault3(i64 858, double* %25, i32 29, i32 0, i32 1, i32 0, i8* getelementptr inbounds ([14 x i8]* @getelementptr_namestr, i32 0, i32 0)), !llfi_injectfault !2
  store double 0.000000e+00, double* %fi29, align 8, !llfi_index !860
  store i32 0, i32* %fi6, align 4, !llfi_index !861
  br label %26, !llfi_index !862

; <label>:26                                      ; preds = %57, %21
  %27 = load i32* %fi6, align 4, !llfi_index !863
  %fi30 = call i32 @injectFault5(i64 862, i32 %27, i32 27, i32 0, i32 1, i32 0, i8* getelementptr inbounds ([5 x i8]* @load_namestr, i32 0, i32 0)), !llfi_injectfault !2
  %28 = load i32* %fi2, align 4, !llfi_index !864
  %fi31 = call i32 @injectFault5(i64 863, i32 %28, i32 27, i32 0, i32 1, i32 0, i8* getelementptr inbounds ([5 x i8]* @load_namestr, i32 0, i32 0)), !llfi_injectfault !2
  %29 = sub nsw i32 %fi31, 1, !llfi_index !865
  %fi32 = call i32 @injectFault5(i64 864, i32 %29, i32 10, i32 0, i32 1, i32 0, i8* getelementptr inbounds ([4 x i8]* @sub_namestr, i32 0, i32 0)), !llfi_injectfault !2
  %30 = icmp sle i32 %fi30, %fi32, !llfi_index !866
  %fi33 = call i1 @injectFault4(i64 865, i1 %30, i32 46, i32 0, i32 1, i32 0, i8* getelementptr inbounds ([5 x i8]* @icmp_namestr, i32 0, i32 0)), !llfi_injectfault !2
  br i1 %fi33, label %31, label %60, !llfi_index !867

; <label>:31                                      ; preds = %26
  %32 = load i32* %fi5, align 4, !llfi_index !868
  %fi34 = call i32 @injectFault5(i64 867, i32 %32, i32 27, i32 0, i32 1, i32 0, i8* getelementptr inbounds ([5 x i8]* @load_namestr, i32 0, i32 0)), !llfi_injectfault !2
  %33 = sext i32 %fi34 to i64, !llfi_index !869
  %fi22 = call i64 @injectFault6(i64 868, i64 %33, i32 35, i32 0, i32 1, i32 0, i8* getelementptr inbounds ([5 x i8]* @sext_namestr, i32 0, i32 0)), !llfi_injectfault !2
  %34 = load i32* %fi6, align 4, !llfi_index !870
  %fi37 = call i32 @injectFault5(i64 869, i32 %34, i32 27, i32 0, i32 1, i32 0, i8* getelementptr inbounds ([5 x i8]* @load_namestr, i32 0, i32 0)), !llfi_injectfault !2
  %35 = sext i32 %fi37 to i64, !llfi_index !871
  %fi38 = call i64 @injectFault6(i64 870, i64 %35, i32 35, i32 0, i32 1, i32 0, i8* getelementptr inbounds ([5 x i8]* @sext_namestr, i32 0, i32 0)), !llfi_injectfault !2
  %36 = load double*** %fi3, align 8, !llfi_index !872
  %fi39 = call double** @injectFault8(i64 871, double** %36, i32 27, i32 0, i32 1, i32 0, i8* getelementptr inbounds ([5 x i8]* @load_namestr, i32 0, i32 0)), !llfi_injectfault !2
  %37 = getelementptr double** %fi39, i64 %fi38, !llfi_index !873
  %fi40 = call double** @injectFault8(i64 872, double** %37, i32 29, i32 0, i32 1, i32 0, i8* getelementptr inbounds ([14 x i8]* @getelementptr_namestr, i32 0, i32 0)), !llfi_injectfault !2
  %38 = load double** %fi40, align 8, !llfi_index !874
  %fi41 = call double* @injectFault3(i64 873, double* %38, i32 27, i32 0, i32 1, i32 0, i8* getelementptr inbounds ([5 x i8]* @load_namestr, i32 0, i32 0)), !llfi_injectfault !2
  %39 = getelementptr double* %fi41, i64 %fi22, !llfi_index !875
  %fi42 = call double* @injectFault3(i64 874, double* %39, i32 29, i32 0, i32 1, i32 0, i8* getelementptr inbounds ([14 x i8]* @getelementptr_namestr, i32 0, i32 0)), !llfi_injectfault !2
  %40 = load double* %fi42, align 8, !llfi_index !876
  %fi43 = call double @injectFault0(i64 875, double %40, i32 27, i32 0, i32 1, i32 0, i8* getelementptr inbounds ([5 x i8]* @load_namestr, i32 0, i32 0)), !llfi_injectfault !2
  %41 = load i32* %fi5, align 4, !llfi_index !877
  %fi44 = call i32 @injectFault5(i64 876, i32 %41, i32 27, i32 0, i32 1, i32 0, i8* getelementptr inbounds ([5 x i8]* @load_namestr, i32 0, i32 0)), !llfi_injectfault !2
  %42 = sext i32 %fi44 to i64, !llfi_index !878
  %fi45 = call i64 @injectFault6(i64 877, i64 %42, i32 35, i32 0, i32 1, i32 0, i8* getelementptr inbounds ([5 x i8]* @sext_namestr, i32 0, i32 0)), !llfi_injectfault !2
  %43 = load i32* %fi6, align 4, !llfi_index !879
  %fi46 = call i32 @injectFault5(i64 878, i32 %43, i32 27, i32 0, i32 1, i32 0, i8* getelementptr inbounds ([5 x i8]* @load_namestr, i32 0, i32 0)), !llfi_injectfault !2
  %44 = sext i32 %fi46 to i64, !llfi_index !880
  %fi47 = call i64 @injectFault6(i64 879, i64 %44, i32 35, i32 0, i32 1, i32 0, i8* getelementptr inbounds ([5 x i8]* @sext_namestr, i32 0, i32 0)), !llfi_injectfault !2
  %45 = load double*** %fi3, align 8, !llfi_index !881
  %fi48 = call double** @injectFault8(i64 880, double** %45, i32 27, i32 0, i32 1, i32 0, i8* getelementptr inbounds ([5 x i8]* @load_namestr, i32 0, i32 0)), !llfi_injectfault !2
  %46 = getelementptr double** %fi48, i64 %fi47, !llfi_index !882
  %fi49 = call double** @injectFault8(i64 881, double** %46, i32 29, i32 0, i32 1, i32 0, i8* getelementptr inbounds ([14 x i8]* @getelementptr_namestr, i32 0, i32 0)), !llfi_injectfault !2
  %47 = load double** %fi49, align 8, !llfi_index !883
  %fi50 = call double* @injectFault3(i64 882, double* %47, i32 27, i32 0, i32 1, i32 0, i8* getelementptr inbounds ([5 x i8]* @load_namestr, i32 0, i32 0)), !llfi_injectfault !2
  %48 = getelementptr double* %fi50, i64 %fi45, !llfi_index !884
  %fi51 = call double* @injectFault3(i64 883, double* %48, i32 29, i32 0, i32 1, i32 0, i8* getelementptr inbounds ([14 x i8]* @getelementptr_namestr, i32 0, i32 0)), !llfi_injectfault !2
  %49 = load double* %fi51, align 8, !llfi_index !885
  %fi52 = call double @injectFault0(i64 884, double %49, i32 27, i32 0, i32 1, i32 0, i8* getelementptr inbounds ([5 x i8]* @load_namestr, i32 0, i32 0)), !llfi_injectfault !2
  %50 = fmul double %fi43, %fi52, !llfi_index !886
  %fi53 = call double @injectFault0(i64 885, double %50, i32 13, i32 0, i32 1, i32 0, i8* getelementptr inbounds ([5 x i8]* @fmul_namestr, i32 0, i32 0)), !llfi_injectfault !2
  %51 = load i32* %fi5, align 4, !llfi_index !887
  %fi54 = call i32 @injectFault5(i64 886, i32 %51, i32 27, i32 0, i32 1, i32 0, i8* getelementptr inbounds ([5 x i8]* @load_namestr, i32 0, i32 0)), !llfi_injectfault !2
  %52 = sext i32 %fi54 to i64, !llfi_index !888
  %fi55 = call i64 @injectFault6(i64 887, i64 %52, i32 35, i32 0, i32 1, i32 0, i8* getelementptr inbounds ([5 x i8]* @sext_namestr, i32 0, i32 0)), !llfi_injectfault !2
  %53 = load double** %fi8, align 8, !llfi_index !889
  %fi56 = call double* @injectFault3(i64 888, double* %53, i32 27, i32 0, i32 1, i32 0, i8* getelementptr inbounds ([5 x i8]* @load_namestr, i32 0, i32 0)), !llfi_injectfault !2
  %54 = getelementptr double* %fi56, i64 %fi55, !llfi_index !890
  %fi57 = call double* @injectFault3(i64 889, double* %54, i32 29, i32 0, i32 1, i32 0, i8* getelementptr inbounds ([14 x i8]* @getelementptr_namestr, i32 0, i32 0)), !llfi_injectfault !2
  %55 = load double* %fi57, align 8, !llfi_index !891
  %fi58 = call double @injectFault0(i64 890, double %55, i32 27, i32 0, i32 1, i32 0, i8* getelementptr inbounds ([5 x i8]* @load_namestr, i32 0, i32 0)), !llfi_injectfault !2
  %56 = fadd double %fi58, %fi53, !llfi_index !892
  %fi59 = call double @injectFault0(i64 891, double %56, i32 9, i32 0, i32 1, i32 0, i8* getelementptr inbounds ([5 x i8]* @fadd_namestr, i32 0, i32 0)), !llfi_injectfault !2
  store double %fi59, double* %fi57, align 8, !llfi_index !893
  br label %57, !llfi_index !894

; <label>:57                                      ; preds = %31
  %58 = load i32* %fi6, align 4, !llfi_index !895
  %fi60 = call i32 @injectFault5(i64 894, i32 %58, i32 27, i32 0, i32 1, i32 0, i8* getelementptr inbounds ([5 x i8]* @load_namestr, i32 0, i32 0)), !llfi_injectfault !2
  %59 = add nsw i32 %fi60, 1, !llfi_index !896
  %fi61 = call i32 @injectFault5(i64 895, i32 %59, i32 8, i32 0, i32 1, i32 0, i8* getelementptr inbounds ([4 x i8]* @add_namestr, i32 0, i32 0)), !llfi_injectfault !2
  store i32 %fi61, i32* %fi6, align 4, !llfi_index !897
  br label %26, !llfi_index !898

; <label>:60                                      ; preds = %26
  %61 = load i32* %fi5, align 4, !llfi_index !899
  %fi62 = call i32 @injectFault5(i64 898, i32 %61, i32 27, i32 0, i32 1, i32 0, i8* getelementptr inbounds ([5 x i8]* @load_namestr, i32 0, i32 0)), !llfi_injectfault !2
  %62 = sext i32 %fi62 to i64, !llfi_index !900
  %fi63 = call i64 @injectFault6(i64 899, i64 %62, i32 35, i32 0, i32 1, i32 0, i8* getelementptr inbounds ([5 x i8]* @sext_namestr, i32 0, i32 0)), !llfi_injectfault !2
  %63 = load double** %fi8, align 8, !llfi_index !901
  %fi64 = call double* @injectFault3(i64 900, double* %63, i32 27, i32 0, i32 1, i32 0, i8* getelementptr inbounds ([5 x i8]* @load_namestr, i32 0, i32 0)), !llfi_injectfault !2
  %64 = getelementptr double* %fi64, i64 %fi63, !llfi_index !902
  %fi65 = call double* @injectFault3(i64 901, double* %64, i32 29, i32 0, i32 1, i32 0, i8* getelementptr inbounds ([14 x i8]* @getelementptr_namestr, i32 0, i32 0)), !llfi_injectfault !2
  %65 = load double* %fi65, align 8, !llfi_index !903
  %fi35 = call double @injectFault0(i64 902, double %65, i32 27, i32 0, i32 1, i32 0, i8* getelementptr inbounds ([5 x i8]* @load_namestr, i32 0, i32 0)), !llfi_injectfault !2
  %66 = call double @sqrt(double %fi35) #5, !llfi_index !904
  %fi36 = call double @injectFault0(i64 903, double %66, i32 49, i32 0, i32 1, i32 0, i8* getelementptr inbounds ([5 x i8]* @call_namestr, i32 0, i32 0)), !llfi_injectfault !2
  %67 = load i32* %fi5, align 4, !llfi_index !905
  %fi69 = call i32 @injectFault5(i64 904, i32 %67, i32 27, i32 0, i32 1, i32 0, i8* getelementptr inbounds ([5 x i8]* @load_namestr, i32 0, i32 0)), !llfi_injectfault !2
  %68 = sext i32 %fi69 to i64, !llfi_index !906
  %fi70 = call i64 @injectFault6(i64 905, i64 %68, i32 35, i32 0, i32 1, i32 0, i8* getelementptr inbounds ([5 x i8]* @sext_namestr, i32 0, i32 0)), !llfi_injectfault !2
  %69 = load double** %fi8, align 8, !llfi_index !907
  %fi71 = call double* @injectFault3(i64 906, double* %69, i32 27, i32 0, i32 1, i32 0, i8* getelementptr inbounds ([5 x i8]* @load_namestr, i32 0, i32 0)), !llfi_injectfault !2
  %70 = getelementptr double* %fi71, i64 %fi70, !llfi_index !908
  %fi72 = call double* @injectFault3(i64 907, double* %70, i32 29, i32 0, i32 1, i32 0, i8* getelementptr inbounds ([14 x i8]* @getelementptr_namestr, i32 0, i32 0)), !llfi_injectfault !2
  store double %fi36, double* %fi72, align 8, !llfi_index !909
  br label %71, !llfi_index !910

; <label>:71                                      ; preds = %60
  %72 = load i32* %fi5, align 4, !llfi_index !911
  %fi73 = call i32 @injectFault5(i64 910, i32 %72, i32 27, i32 0, i32 1, i32 0, i8* getelementptr inbounds ([5 x i8]* @load_namestr, i32 0, i32 0)), !llfi_injectfault !2
  %73 = add nsw i32 %fi73, 1, !llfi_index !912
  %fi74 = call i32 @injectFault5(i64 911, i32 %73, i32 8, i32 0, i32 1, i32 0, i8* getelementptr inbounds ([4 x i8]* @add_namestr, i32 0, i32 0)), !llfi_injectfault !2
  store i32 %fi74, i32* %fi5, align 4, !llfi_index !913
  br label %16, !llfi_index !914

; <label>:74                                      ; preds = %16
  store i32 0, i32* %fi5, align 4, !llfi_index !915
  br label %75, !llfi_index !916

; <label>:75                                      ; preds = %114, %74
  %76 = load i32* %fi5, align 4, !llfi_index !917
  %fi75 = call i32 @injectFault5(i64 916, i32 %76, i32 27, i32 0, i32 1, i32 0, i8* getelementptr inbounds ([5 x i8]* @load_namestr, i32 0, i32 0)), !llfi_injectfault !2
  %77 = load i32* %fi1, align 4, !llfi_index !918
  %fi76 = call i32 @injectFault5(i64 917, i32 %77, i32 27, i32 0, i32 1, i32 0, i8* getelementptr inbounds ([5 x i8]* @load_namestr, i32 0, i32 0)), !llfi_injectfault !2
  %78 = sub nsw i32 %fi76, 2, !llfi_index !919
  %fi77 = call i32 @injectFault5(i64 918, i32 %78, i32 10, i32 0, i32 1, i32 0, i8* getelementptr inbounds ([4 x i8]* @sub_namestr, i32 0, i32 0)), !llfi_injectfault !2
  %79 = icmp sle i32 %fi75, %fi77, !llfi_index !920
  %fi78 = call i1 @injectFault4(i64 919, i1 %79, i32 46, i32 0, i32 1, i32 0, i8* getelementptr inbounds ([5 x i8]* @icmp_namestr, i32 0, i32 0)), !llfi_injectfault !2
  br i1 %fi78, label %80, label %117, !llfi_index !921

; <label>:80                                      ; preds = %75
  store i32 0, i32* %fi6, align 4, !llfi_index !922
  br label %81, !llfi_index !923

; <label>:81                                      ; preds = %110, %80
  %82 = load i32* %fi6, align 4, !llfi_index !924
  %fi79 = call i32 @injectFault5(i64 923, i32 %82, i32 27, i32 0, i32 1, i32 0, i8* getelementptr inbounds ([5 x i8]* @load_namestr, i32 0, i32 0)), !llfi_injectfault !2
  %83 = load i32* %fi2, align 4, !llfi_index !925
  %fi80 = call i32 @injectFault5(i64 924, i32 %83, i32 27, i32 0, i32 1, i32 0, i8* getelementptr inbounds ([5 x i8]* @load_namestr, i32 0, i32 0)), !llfi_injectfault !2
  %84 = sub nsw i32 %fi80, 1, !llfi_index !926
  %fi81 = call i32 @injectFault5(i64 925, i32 %84, i32 10, i32 0, i32 1, i32 0, i8* getelementptr inbounds ([4 x i8]* @sub_namestr, i32 0, i32 0)), !llfi_injectfault !2
  %85 = icmp sle i32 %fi79, %fi81, !llfi_index !927
  %fi82 = call i1 @injectFault4(i64 926, i1 %85, i32 46, i32 0, i32 1, i32 0, i8* getelementptr inbounds ([5 x i8]* @icmp_namestr, i32 0, i32 0)), !llfi_injectfault !2
  br i1 %fi82, label %86, label %113, !llfi_index !928

; <label>:86                                      ; preds = %81
  %87 = load i32* %fi5, align 4, !llfi_index !929
  %fi83 = call i32 @injectFault5(i64 928, i32 %87, i32 27, i32 0, i32 1, i32 0, i8* getelementptr inbounds ([5 x i8]* @load_namestr, i32 0, i32 0)), !llfi_injectfault !2
  %88 = sext i32 %fi83 to i64, !llfi_index !930
  %fi84 = call i64 @injectFault6(i64 929, i64 %88, i32 35, i32 0, i32 1, i32 0, i8* getelementptr inbounds ([5 x i8]* @sext_namestr, i32 0, i32 0)), !llfi_injectfault !2
  %89 = load i32* %fi6, align 4, !llfi_index !931
  %fi85 = call i32 @injectFault5(i64 930, i32 %89, i32 27, i32 0, i32 1, i32 0, i8* getelementptr inbounds ([5 x i8]* @load_namestr, i32 0, i32 0)), !llfi_injectfault !2
  %90 = sext i32 %fi85 to i64, !llfi_index !932
  %fi86 = call i64 @injectFault6(i64 931, i64 %90, i32 35, i32 0, i32 1, i32 0, i8* getelementptr inbounds ([5 x i8]* @sext_namestr, i32 0, i32 0)), !llfi_injectfault !2
  %91 = load double*** %fi3, align 8, !llfi_index !933
  %fi87 = call double** @injectFault8(i64 932, double** %91, i32 27, i32 0, i32 1, i32 0, i8* getelementptr inbounds ([5 x i8]* @load_namestr, i32 0, i32 0)), !llfi_injectfault !2
  %92 = getelementptr double** %fi87, i64 %fi86, !llfi_index !934
  %fi88 = call double** @injectFault8(i64 933, double** %92, i32 29, i32 0, i32 1, i32 0, i8* getelementptr inbounds ([14 x i8]* @getelementptr_namestr, i32 0, i32 0)), !llfi_injectfault !2
  %93 = load double** %fi88, align 8, !llfi_index !935
  %fi89 = call double* @injectFault3(i64 934, double* %93, i32 27, i32 0, i32 1, i32 0, i8* getelementptr inbounds ([5 x i8]* @load_namestr, i32 0, i32 0)), !llfi_injectfault !2
  %94 = getelementptr double* %fi89, i64 %fi84, !llfi_index !936
  %fi90 = call double* @injectFault3(i64 935, double* %94, i32 29, i32 0, i32 1, i32 0, i8* getelementptr inbounds ([14 x i8]* @getelementptr_namestr, i32 0, i32 0)), !llfi_injectfault !2
  %95 = load double* %fi90, align 8, !llfi_index !937
  %fi91 = call double @injectFault0(i64 936, double %95, i32 27, i32 0, i32 1, i32 0, i8* getelementptr inbounds ([5 x i8]* @load_namestr, i32 0, i32 0)), !llfi_injectfault !2
  %96 = load i32* %fi5, align 4, !llfi_index !938
  %fi92 = call i32 @injectFault5(i64 937, i32 %96, i32 27, i32 0, i32 1, i32 0, i8* getelementptr inbounds ([5 x i8]* @load_namestr, i32 0, i32 0)), !llfi_injectfault !2
  %97 = sext i32 %fi92 to i64, !llfi_index !939
  %fi93 = call i64 @injectFault6(i64 938, i64 %97, i32 35, i32 0, i32 1, i32 0, i8* getelementptr inbounds ([5 x i8]* @sext_namestr, i32 0, i32 0)), !llfi_injectfault !2
  %98 = load double** %fi8, align 8, !llfi_index !940
  %fi94 = call double* @injectFault3(i64 939, double* %98, i32 27, i32 0, i32 1, i32 0, i8* getelementptr inbounds ([5 x i8]* @load_namestr, i32 0, i32 0)), !llfi_injectfault !2
  %99 = getelementptr double* %fi94, i64 %fi93, !llfi_index !941
  %fi95 = call double* @injectFault3(i64 940, double* %99, i32 29, i32 0, i32 1, i32 0, i8* getelementptr inbounds ([14 x i8]* @getelementptr_namestr, i32 0, i32 0)), !llfi_injectfault !2
  %100 = load double* %fi95, align 8, !llfi_index !942
  %fi96 = call double @injectFault0(i64 941, double %100, i32 27, i32 0, i32 1, i32 0, i8* getelementptr inbounds ([5 x i8]* @load_namestr, i32 0, i32 0)), !llfi_injectfault !2
  %101 = fdiv double %fi91, %fi96, !llfi_index !943
  %fi97 = call double @injectFault0(i64 942, double %101, i32 16, i32 0, i32 1, i32 0, i8* getelementptr inbounds ([5 x i8]* @fdiv_namestr, i32 0, i32 0)), !llfi_injectfault !2
  %102 = load i32* %fi5, align 4, !llfi_index !944
  %fi98 = call i32 @injectFault5(i64 943, i32 %102, i32 27, i32 0, i32 1, i32 0, i8* getelementptr inbounds ([5 x i8]* @load_namestr, i32 0, i32 0)), !llfi_injectfault !2
  %103 = sext i32 %fi98 to i64, !llfi_index !945
  %fi99 = call i64 @injectFault6(i64 944, i64 %103, i32 35, i32 0, i32 1, i32 0, i8* getelementptr inbounds ([5 x i8]* @sext_namestr, i32 0, i32 0)), !llfi_injectfault !2
  %104 = load i32* %fi6, align 4, !llfi_index !946
  %fi100 = call i32 @injectFault5(i64 945, i32 %104, i32 27, i32 0, i32 1, i32 0, i8* getelementptr inbounds ([5 x i8]* @load_namestr, i32 0, i32 0)), !llfi_injectfault !2
  %105 = sext i32 %fi100 to i64, !llfi_index !947
  %fi101 = call i64 @injectFault6(i64 946, i64 %105, i32 35, i32 0, i32 1, i32 0, i8* getelementptr inbounds ([5 x i8]* @sext_namestr, i32 0, i32 0)), !llfi_injectfault !2
  %106 = load double*** %fi9, align 8, !llfi_index !948
  %fi102 = call double** @injectFault8(i64 947, double** %106, i32 27, i32 0, i32 1, i32 0, i8* getelementptr inbounds ([5 x i8]* @load_namestr, i32 0, i32 0)), !llfi_injectfault !2
  %107 = getelementptr double** %fi102, i64 %fi101, !llfi_index !949
  %fi103 = call double** @injectFault8(i64 948, double** %107, i32 29, i32 0, i32 1, i32 0, i8* getelementptr inbounds ([14 x i8]* @getelementptr_namestr, i32 0, i32 0)), !llfi_injectfault !2
  %108 = load double** %fi103, align 8, !llfi_index !950
  %fi104 = call double* @injectFault3(i64 949, double* %108, i32 27, i32 0, i32 1, i32 0, i8* getelementptr inbounds ([5 x i8]* @load_namestr, i32 0, i32 0)), !llfi_injectfault !2
  %109 = getelementptr double* %fi104, i64 %fi99, !llfi_index !951
  %fi105 = call double* @injectFault3(i64 950, double* %109, i32 29, i32 0, i32 1, i32 0, i8* getelementptr inbounds ([14 x i8]* @getelementptr_namestr, i32 0, i32 0)), !llfi_injectfault !2
  store double %fi97, double* %fi105, align 8, !llfi_index !952
  br label %110, !llfi_index !953

; <label>:110                                     ; preds = %86
  %111 = load i32* %fi6, align 4, !llfi_index !954
  %fi106 = call i32 @injectFault5(i64 953, i32 %111, i32 27, i32 0, i32 1, i32 0, i8* getelementptr inbounds ([5 x i8]* @load_namestr, i32 0, i32 0)), !llfi_injectfault !2
  %112 = add nsw i32 %fi106, 1, !llfi_index !955
  %fi107 = call i32 @injectFault5(i64 954, i32 %112, i32 8, i32 0, i32 1, i32 0, i8* getelementptr inbounds ([4 x i8]* @add_namestr, i32 0, i32 0)), !llfi_injectfault !2
  store i32 %fi107, i32* %fi6, align 4, !llfi_index !956
  br label %81, !llfi_index !957

; <label>:113                                     ; preds = %81
  br label %114, !llfi_index !958

; <label>:114                                     ; preds = %113
  %115 = load i32* %fi5, align 4, !llfi_index !959
  %fi108 = call i32 @injectFault5(i64 958, i32 %115, i32 27, i32 0, i32 1, i32 0, i8* getelementptr inbounds ([5 x i8]* @load_namestr, i32 0, i32 0)), !llfi_injectfault !2
  %116 = add nsw i32 %fi108, 1, !llfi_index !960
  %fi109 = call i32 @injectFault5(i64 959, i32 %116, i32 8, i32 0, i32 1, i32 0, i8* getelementptr inbounds ([4 x i8]* @add_namestr, i32 0, i32 0)), !llfi_injectfault !2
  store i32 %fi109, i32* %fi5, align 4, !llfi_index !961
  br label %75, !llfi_index !962

; <label>:117                                     ; preds = %75
  store i32 0, i32* %fi5, align 4, !llfi_index !963
  br label %118, !llfi_index !964

; <label>:118                                     ; preds = %142, %117
  %119 = load i32* %fi5, align 4, !llfi_index !965
  %fi110 = call i32 @injectFault5(i64 964, i32 %119, i32 27, i32 0, i32 1, i32 0, i8* getelementptr inbounds ([5 x i8]* @load_namestr, i32 0, i32 0)), !llfi_injectfault !2
  %120 = load i32* %fi1, align 4, !llfi_index !966
  %fi111 = call i32 @injectFault5(i64 965, i32 %120, i32 27, i32 0, i32 1, i32 0, i8* getelementptr inbounds ([5 x i8]* @load_namestr, i32 0, i32 0)), !llfi_injectfault !2
  %121 = sub nsw i32 %fi111, 2, !llfi_index !967
  %fi112 = call i32 @injectFault5(i64 966, i32 %121, i32 10, i32 0, i32 1, i32 0, i8* getelementptr inbounds ([4 x i8]* @sub_namestr, i32 0, i32 0)), !llfi_injectfault !2
  %122 = icmp sle i32 %fi110, %fi112, !llfi_index !968
  %fi113 = call i1 @injectFault4(i64 967, i1 %122, i32 46, i32 0, i32 1, i32 0, i8* getelementptr inbounds ([5 x i8]* @icmp_namestr, i32 0, i32 0)), !llfi_injectfault !2
  br i1 %fi113, label %123, label %145, !llfi_index !969

; <label>:123                                     ; preds = %118
  store i32 0, i32* %fi6, align 4, !llfi_index !970
  br label %124, !llfi_index !971

; <label>:124                                     ; preds = %138, %123
  %125 = load i32* %fi6, align 4, !llfi_index !972
  %fi114 = call i32 @injectFault5(i64 971, i32 %125, i32 27, i32 0, i32 1, i32 0, i8* getelementptr inbounds ([5 x i8]* @load_namestr, i32 0, i32 0)), !llfi_injectfault !2
  %126 = load i32* %fi1, align 4, !llfi_index !973
  %fi115 = call i32 @injectFault5(i64 972, i32 %126, i32 27, i32 0, i32 1, i32 0, i8* getelementptr inbounds ([5 x i8]* @load_namestr, i32 0, i32 0)), !llfi_injectfault !2
  %127 = sub nsw i32 %fi115, 2, !llfi_index !974
  %fi116 = call i32 @injectFault5(i64 973, i32 %127, i32 10, i32 0, i32 1, i32 0, i8* getelementptr inbounds ([4 x i8]* @sub_namestr, i32 0, i32 0)), !llfi_injectfault !2
  %128 = icmp sle i32 %fi114, %fi116, !llfi_index !975
  %fi117 = call i1 @injectFault4(i64 974, i1 %128, i32 46, i32 0, i32 1, i32 0, i8* getelementptr inbounds ([5 x i8]* @icmp_namestr, i32 0, i32 0)), !llfi_injectfault !2
  br i1 %fi117, label %129, label %141, !llfi_index !976

; <label>:129                                     ; preds = %124
  %130 = load i32* %fi6, align 4, !llfi_index !977
  %fi66 = call i32 @injectFault5(i64 976, i32 %130, i32 27, i32 0, i32 1, i32 0, i8* getelementptr inbounds ([5 x i8]* @load_namestr, i32 0, i32 0)), !llfi_injectfault !2
  %131 = sext i32 %fi66 to i64, !llfi_index !978
  %fi67 = call i64 @injectFault6(i64 977, i64 %131, i32 35, i32 0, i32 1, i32 0, i8* getelementptr inbounds ([5 x i8]* @sext_namestr, i32 0, i32 0)), !llfi_injectfault !2
  %132 = load i32* %fi5, align 4, !llfi_index !979
  %fi68 = call i32 @injectFault5(i64 978, i32 %132, i32 27, i32 0, i32 1, i32 0, i8* getelementptr inbounds ([5 x i8]* @load_namestr, i32 0, i32 0)), !llfi_injectfault !2
  %133 = sext i32 %fi68 to i64, !llfi_index !980
  %fi118 = call i64 @injectFault6(i64 979, i64 %133, i32 35, i32 0, i32 1, i32 0, i8* getelementptr inbounds ([5 x i8]* @sext_namestr, i32 0, i32 0)), !llfi_injectfault !2
  %134 = load double*** %fi, align 8, !llfi_index !981
  %fi119 = call double** @injectFault8(i64 980, double** %134, i32 27, i32 0, i32 1, i32 0, i8* getelementptr inbounds ([5 x i8]* @load_namestr, i32 0, i32 0)), !llfi_injectfault !2
  %135 = getelementptr double** %fi119, i64 %fi118, !llfi_index !982
  %fi120 = call double** @injectFault8(i64 981, double** %135, i32 29, i32 0, i32 1, i32 0, i8* getelementptr inbounds ([14 x i8]* @getelementptr_namestr, i32 0, i32 0)), !llfi_injectfault !2
  %136 = load double** %fi120, align 8, !llfi_index !983
  %fi121 = call double* @injectFault3(i64 982, double* %136, i32 27, i32 0, i32 1, i32 0, i8* getelementptr inbounds ([5 x i8]* @load_namestr, i32 0, i32 0)), !llfi_injectfault !2
  %137 = getelementptr double* %fi121, i64 %fi67, !llfi_index !984
  %fi122 = call double* @injectFault3(i64 983, double* %137, i32 29, i32 0, i32 1, i32 0, i8* getelementptr inbounds ([14 x i8]* @getelementptr_namestr, i32 0, i32 0)), !llfi_injectfault !2
  store double 0.000000e+00, double* %fi122, align 8, !llfi_index !985
  br label %138, !llfi_index !986

; <label>:138                                     ; preds = %129
  %139 = load i32* %fi6, align 4, !llfi_index !987
  %fi123 = call i32 @injectFault5(i64 986, i32 %139, i32 27, i32 0, i32 1, i32 0, i8* getelementptr inbounds ([5 x i8]* @load_namestr, i32 0, i32 0)), !llfi_injectfault !2
  %140 = add nsw i32 %fi123, 1, !llfi_index !988
  %fi124 = call i32 @injectFault5(i64 987, i32 %140, i32 8, i32 0, i32 1, i32 0, i8* getelementptr inbounds ([4 x i8]* @add_namestr, i32 0, i32 0)), !llfi_injectfault !2
  store i32 %fi124, i32* %fi6, align 4, !llfi_index !989
  br label %124, !llfi_index !990

; <label>:141                                     ; preds = %124
  br label %142, !llfi_index !991

; <label>:142                                     ; preds = %141
  %143 = load i32* %fi5, align 4, !llfi_index !992
  %fi125 = call i32 @injectFault5(i64 991, i32 %143, i32 27, i32 0, i32 1, i32 0, i8* getelementptr inbounds ([5 x i8]* @load_namestr, i32 0, i32 0)), !llfi_injectfault !2
  %144 = add nsw i32 %fi125, 1, !llfi_index !993
  %fi126 = call i32 @injectFault5(i64 992, i32 %144, i32 8, i32 0, i32 1, i32 0, i8* getelementptr inbounds ([4 x i8]* @add_namestr, i32 0, i32 0)), !llfi_injectfault !2
  store i32 %fi126, i32* %fi5, align 4, !llfi_index !994
  br label %118, !llfi_index !995

; <label>:145                                     ; preds = %118
  store i32 0, i32* %fi5, align 4, !llfi_index !996
  br label %146, !llfi_index !997

; <label>:146                                     ; preds = %202, %145
  %147 = load i32* %fi5, align 4, !llfi_index !998
  %fi127 = call i32 @injectFault5(i64 997, i32 %147, i32 27, i32 0, i32 1, i32 0, i8* getelementptr inbounds ([5 x i8]* @load_namestr, i32 0, i32 0)), !llfi_injectfault !2
  %148 = load i32* %fi1, align 4, !llfi_index !999
  %fi128 = call i32 @injectFault5(i64 998, i32 %148, i32 27, i32 0, i32 1, i32 0, i8* getelementptr inbounds ([5 x i8]* @load_namestr, i32 0, i32 0)), !llfi_injectfault !2
  %149 = sub nsw i32 %fi128, 2, !llfi_index !1000
  %fi129 = call i32 @injectFault5(i64 999, i32 %149, i32 10, i32 0, i32 1, i32 0, i8* getelementptr inbounds ([4 x i8]* @sub_namestr, i32 0, i32 0)), !llfi_injectfault !2
  %150 = icmp sle i32 %fi127, %fi129, !llfi_index !1001
  %fi130 = call i1 @injectFault4(i64 1000, i1 %150, i32 46, i32 0, i32 1, i32 0, i8* getelementptr inbounds ([5 x i8]* @icmp_namestr, i32 0, i32 0)), !llfi_injectfault !2
  br i1 %fi130, label %151, label %205, !llfi_index !1002

; <label>:151                                     ; preds = %146
  %152 = load i32* %fi5, align 4, !llfi_index !1003
  %fi131 = call i32 @injectFault5(i64 1002, i32 %152, i32 27, i32 0, i32 1, i32 0, i8* getelementptr inbounds ([5 x i8]* @load_namestr, i32 0, i32 0)), !llfi_injectfault !2
  store i32 %fi131, i32* %fi6, align 4, !llfi_index !1004
  br label %153, !llfi_index !1005

; <label>:153                                     ; preds = %198, %151
  %154 = load i32* %fi6, align 4, !llfi_index !1006
  %fi132 = call i32 @injectFault5(i64 1005, i32 %154, i32 27, i32 0, i32 1, i32 0, i8* getelementptr inbounds ([5 x i8]* @load_namestr, i32 0, i32 0)), !llfi_injectfault !2
  %155 = load i32* %fi1, align 4, !llfi_index !1007
  %fi133 = call i32 @injectFault5(i64 1006, i32 %155, i32 27, i32 0, i32 1, i32 0, i8* getelementptr inbounds ([5 x i8]* @load_namestr, i32 0, i32 0)), !llfi_injectfault !2
  %156 = sub nsw i32 %fi133, 2, !llfi_index !1008
  %fi134 = call i32 @injectFault5(i64 1007, i32 %156, i32 10, i32 0, i32 1, i32 0, i8* getelementptr inbounds ([4 x i8]* @sub_namestr, i32 0, i32 0)), !llfi_injectfault !2
  %157 = icmp sle i32 %fi132, %fi134, !llfi_index !1009
  %fi135 = call i1 @injectFault4(i64 1008, i1 %157, i32 46, i32 0, i32 1, i32 0, i8* getelementptr inbounds ([5 x i8]* @icmp_namestr, i32 0, i32 0)), !llfi_injectfault !2
  br i1 %fi135, label %158, label %201, !llfi_index !1010

; <label>:158                                     ; preds = %153
  store i32 0, i32* %fi7, align 4, !llfi_index !1011
  br label %159, !llfi_index !1012

; <label>:159                                     ; preds = %194, %158
  %160 = load i32* %fi7, align 4, !llfi_index !1013
  %fi136 = call i32 @injectFault5(i64 1012, i32 %160, i32 27, i32 0, i32 1, i32 0, i8* getelementptr inbounds ([5 x i8]* @load_namestr, i32 0, i32 0)), !llfi_injectfault !2
  %161 = load i32* %fi2, align 4, !llfi_index !1014
  %fi137 = call i32 @injectFault5(i64 1013, i32 %161, i32 27, i32 0, i32 1, i32 0, i8* getelementptr inbounds ([5 x i8]* @load_namestr, i32 0, i32 0)), !llfi_injectfault !2
  %162 = sub nsw i32 %fi137, 1, !llfi_index !1015
  %fi138 = call i32 @injectFault5(i64 1014, i32 %162, i32 10, i32 0, i32 1, i32 0, i8* getelementptr inbounds ([4 x i8]* @sub_namestr, i32 0, i32 0)), !llfi_injectfault !2
  %163 = icmp sle i32 %fi136, %fi138, !llfi_index !1016
  %fi139 = call i1 @injectFault4(i64 1015, i1 %163, i32 46, i32 0, i32 1, i32 0, i8* getelementptr inbounds ([5 x i8]* @icmp_namestr, i32 0, i32 0)), !llfi_injectfault !2
  br i1 %fi139, label %164, label %197, !llfi_index !1017

; <label>:164                                     ; preds = %159
  %165 = load i32* %fi5, align 4, !llfi_index !1018
  %fi140 = call i32 @injectFault5(i64 1017, i32 %165, i32 27, i32 0, i32 1, i32 0, i8* getelementptr inbounds ([5 x i8]* @load_namestr, i32 0, i32 0)), !llfi_injectfault !2
  %166 = sext i32 %fi140 to i64, !llfi_index !1019
  %fi141 = call i64 @injectFault6(i64 1018, i64 %166, i32 35, i32 0, i32 1, i32 0, i8* getelementptr inbounds ([5 x i8]* @sext_namestr, i32 0, i32 0)), !llfi_injectfault !2
  %167 = load i32* %fi7, align 4, !llfi_index !1020
  %fi142 = call i32 @injectFault5(i64 1019, i32 %167, i32 27, i32 0, i32 1, i32 0, i8* getelementptr inbounds ([5 x i8]* @load_namestr, i32 0, i32 0)), !llfi_injectfault !2
  %168 = sext i32 %fi142 to i64, !llfi_index !1021
  %fi143 = call i64 @injectFault6(i64 1020, i64 %168, i32 35, i32 0, i32 1, i32 0, i8* getelementptr inbounds ([5 x i8]* @sext_namestr, i32 0, i32 0)), !llfi_injectfault !2
  %169 = load double*** %fi9, align 8, !llfi_index !1022
  %fi144 = call double** @injectFault8(i64 1021, double** %169, i32 27, i32 0, i32 1, i32 0, i8* getelementptr inbounds ([5 x i8]* @load_namestr, i32 0, i32 0)), !llfi_injectfault !2
  %170 = getelementptr double** %fi144, i64 %fi143, !llfi_index !1023
  %fi145 = call double** @injectFault8(i64 1022, double** %170, i32 29, i32 0, i32 1, i32 0, i8* getelementptr inbounds ([14 x i8]* @getelementptr_namestr, i32 0, i32 0)), !llfi_injectfault !2
  %171 = load double** %fi145, align 8, !llfi_index !1024
  %fi146 = call double* @injectFault3(i64 1023, double* %171, i32 27, i32 0, i32 1, i32 0, i8* getelementptr inbounds ([5 x i8]* @load_namestr, i32 0, i32 0)), !llfi_injectfault !2
  %172 = getelementptr double* %fi146, i64 %fi141, !llfi_index !1025
  %fi147 = call double* @injectFault3(i64 1024, double* %172, i32 29, i32 0, i32 1, i32 0, i8* getelementptr inbounds ([14 x i8]* @getelementptr_namestr, i32 0, i32 0)), !llfi_injectfault !2
  %173 = load double* %fi147, align 8, !llfi_index !1026
  %fi148 = call double @injectFault0(i64 1025, double %173, i32 27, i32 0, i32 1, i32 0, i8* getelementptr inbounds ([5 x i8]* @load_namestr, i32 0, i32 0)), !llfi_injectfault !2
  %174 = load i32* %fi6, align 4, !llfi_index !1027
  %fi149 = call i32 @injectFault5(i64 1026, i32 %174, i32 27, i32 0, i32 1, i32 0, i8* getelementptr inbounds ([5 x i8]* @load_namestr, i32 0, i32 0)), !llfi_injectfault !2
  %175 = sext i32 %fi149 to i64, !llfi_index !1028
  %fi150 = call i64 @injectFault6(i64 1027, i64 %175, i32 35, i32 0, i32 1, i32 0, i8* getelementptr inbounds ([5 x i8]* @sext_namestr, i32 0, i32 0)), !llfi_injectfault !2
  %176 = load i32* %fi7, align 4, !llfi_index !1029
  %fi151 = call i32 @injectFault5(i64 1028, i32 %176, i32 27, i32 0, i32 1, i32 0, i8* getelementptr inbounds ([5 x i8]* @load_namestr, i32 0, i32 0)), !llfi_injectfault !2
  %177 = sext i32 %fi151 to i64, !llfi_index !1030
  %fi152 = call i64 @injectFault6(i64 1029, i64 %177, i32 35, i32 0, i32 1, i32 0, i8* getelementptr inbounds ([5 x i8]* @sext_namestr, i32 0, i32 0)), !llfi_injectfault !2
  %178 = load double*** %fi9, align 8, !llfi_index !1031
  %fi153 = call double** @injectFault8(i64 1030, double** %178, i32 27, i32 0, i32 1, i32 0, i8* getelementptr inbounds ([5 x i8]* @load_namestr, i32 0, i32 0)), !llfi_injectfault !2
  %179 = getelementptr double** %fi153, i64 %fi152, !llfi_index !1032
  %fi154 = call double** @injectFault8(i64 1031, double** %179, i32 29, i32 0, i32 1, i32 0, i8* getelementptr inbounds ([14 x i8]* @getelementptr_namestr, i32 0, i32 0)), !llfi_injectfault !2
  %180 = load double** %fi154, align 8, !llfi_index !1033
  %fi155 = call double* @injectFault3(i64 1032, double* %180, i32 27, i32 0, i32 1, i32 0, i8* getelementptr inbounds ([5 x i8]* @load_namestr, i32 0, i32 0)), !llfi_injectfault !2
  %181 = getelementptr double* %fi155, i64 %fi150, !llfi_index !1034
  %fi156 = call double* @injectFault3(i64 1033, double* %181, i32 29, i32 0, i32 1, i32 0, i8* getelementptr inbounds ([14 x i8]* @getelementptr_namestr, i32 0, i32 0)), !llfi_injectfault !2
  %182 = load double* %fi156, align 8, !llfi_index !1035
  %fi157 = call double @injectFault0(i64 1034, double %182, i32 27, i32 0, i32 1, i32 0, i8* getelementptr inbounds ([5 x i8]* @load_namestr, i32 0, i32 0)), !llfi_injectfault !2
  %183 = fmul double %fi148, %fi157, !llfi_index !1036
  %fi158 = call double @injectFault0(i64 1035, double %183, i32 13, i32 0, i32 1, i32 0, i8* getelementptr inbounds ([5 x i8]* @fmul_namestr, i32 0, i32 0)), !llfi_injectfault !2
  %184 = load i32* %fi6, align 4, !llfi_index !1037
  %fi159 = call i32 @injectFault5(i64 1036, i32 %184, i32 27, i32 0, i32 1, i32 0, i8* getelementptr inbounds ([5 x i8]* @load_namestr, i32 0, i32 0)), !llfi_injectfault !2
  %185 = sext i32 %fi159 to i64, !llfi_index !1038
  %fi160 = call i64 @injectFault6(i64 1037, i64 %185, i32 35, i32 0, i32 1, i32 0, i8* getelementptr inbounds ([5 x i8]* @sext_namestr, i32 0, i32 0)), !llfi_injectfault !2
  %186 = load i32* %fi5, align 4, !llfi_index !1039
  %fi161 = call i32 @injectFault5(i64 1038, i32 %186, i32 27, i32 0, i32 1, i32 0, i8* getelementptr inbounds ([5 x i8]* @load_namestr, i32 0, i32 0)), !llfi_injectfault !2
  %187 = sext i32 %fi161 to i64, !llfi_index !1040
  %fi162 = call i64 @injectFault6(i64 1039, i64 %187, i32 35, i32 0, i32 1, i32 0, i8* getelementptr inbounds ([5 x i8]* @sext_namestr, i32 0, i32 0)), !llfi_injectfault !2
  %188 = load double*** %fi, align 8, !llfi_index !1041
  %fi163 = call double** @injectFault8(i64 1040, double** %188, i32 27, i32 0, i32 1, i32 0, i8* getelementptr inbounds ([5 x i8]* @load_namestr, i32 0, i32 0)), !llfi_injectfault !2
  %189 = getelementptr double** %fi163, i64 %fi162, !llfi_index !1042
  %fi164 = call double** @injectFault8(i64 1041, double** %189, i32 29, i32 0, i32 1, i32 0, i8* getelementptr inbounds ([14 x i8]* @getelementptr_namestr, i32 0, i32 0)), !llfi_injectfault !2
  %190 = load double** %fi164, align 8, !llfi_index !1043
  %fi165 = call double* @injectFault3(i64 1042, double* %190, i32 27, i32 0, i32 1, i32 0, i8* getelementptr inbounds ([5 x i8]* @load_namestr, i32 0, i32 0)), !llfi_injectfault !2
  %191 = getelementptr double* %fi165, i64 %fi160, !llfi_index !1044
  %fi166 = call double* @injectFault3(i64 1043, double* %191, i32 29, i32 0, i32 1, i32 0, i8* getelementptr inbounds ([14 x i8]* @getelementptr_namestr, i32 0, i32 0)), !llfi_injectfault !2
  %192 = load double* %fi166, align 8, !llfi_index !1045
  %fi167 = call double @injectFault0(i64 1044, double %192, i32 27, i32 0, i32 1, i32 0, i8* getelementptr inbounds ([5 x i8]* @load_namestr, i32 0, i32 0)), !llfi_injectfault !2
  %193 = fadd double %fi167, %fi158, !llfi_index !1046
  %fi168 = call double @injectFault0(i64 1045, double %193, i32 9, i32 0, i32 1, i32 0, i8* getelementptr inbounds ([5 x i8]* @fadd_namestr, i32 0, i32 0)), !llfi_injectfault !2
  store double %fi168, double* %fi166, align 8, !llfi_index !1047
  br label %194, !llfi_index !1048

; <label>:194                                     ; preds = %164
  %195 = load i32* %fi7, align 4, !llfi_index !1049
  %fi169 = call i32 @injectFault5(i64 1048, i32 %195, i32 27, i32 0, i32 1, i32 0, i8* getelementptr inbounds ([5 x i8]* @load_namestr, i32 0, i32 0)), !llfi_injectfault !2
  %196 = add nsw i32 %fi169, 1, !llfi_index !1050
  %fi170 = call i32 @injectFault5(i64 1049, i32 %196, i32 8, i32 0, i32 1, i32 0, i8* getelementptr inbounds ([4 x i8]* @add_namestr, i32 0, i32 0)), !llfi_injectfault !2
  store i32 %fi170, i32* %fi7, align 4, !llfi_index !1051
  br label %159, !llfi_index !1052

; <label>:197                                     ; preds = %159
  br label %198, !llfi_index !1053

; <label>:198                                     ; preds = %197
  %199 = load i32* %fi6, align 4, !llfi_index !1054
  %fi171 = call i32 @injectFault5(i64 1053, i32 %199, i32 27, i32 0, i32 1, i32 0, i8* getelementptr inbounds ([5 x i8]* @load_namestr, i32 0, i32 0)), !llfi_injectfault !2
  %200 = add nsw i32 %fi171, 1, !llfi_index !1055
  %fi172 = call i32 @injectFault5(i64 1054, i32 %200, i32 8, i32 0, i32 1, i32 0, i8* getelementptr inbounds ([4 x i8]* @add_namestr, i32 0, i32 0)), !llfi_injectfault !2
  store i32 %fi172, i32* %fi6, align 4, !llfi_index !1056
  br label %153, !llfi_index !1057

; <label>:201                                     ; preds = %153
  br label %202, !llfi_index !1058

; <label>:202                                     ; preds = %201
  %203 = load i32* %fi5, align 4, !llfi_index !1059
  %fi173 = call i32 @injectFault5(i64 1058, i32 %203, i32 27, i32 0, i32 1, i32 0, i8* getelementptr inbounds ([5 x i8]* @load_namestr, i32 0, i32 0)), !llfi_injectfault !2
  %204 = add nsw i32 %fi173, 1, !llfi_index !1060
  %fi174 = call i32 @injectFault5(i64 1059, i32 %204, i32 8, i32 0, i32 1, i32 0, i8* getelementptr inbounds ([4 x i8]* @add_namestr, i32 0, i32 0)), !llfi_injectfault !2
  store i32 %fi174, i32* %fi5, align 4, !llfi_index !1061
  br label %146, !llfi_index !1062

; <label>:205                                     ; preds = %146
  %206 = load double** %fi8, align 8, !llfi_index !1063
  %fi175 = call double* @injectFault3(i64 1062, double* %206, i32 27, i32 0, i32 1, i32 0, i8* getelementptr inbounds ([5 x i8]* @load_namestr, i32 0, i32 0)), !llfi_injectfault !2
  %207 = load i32* %fi1, align 4, !llfi_index !1064
  %fi176 = call i32 @injectFault5(i64 1063, i32 %207, i32 27, i32 0, i32 1, i32 0, i8* getelementptr inbounds ([5 x i8]* @load_namestr, i32 0, i32 0)), !llfi_injectfault !2
  %208 = sub nsw i32 %fi176, 2, !llfi_index !1065
  %fi177 = call i32 @injectFault5(i64 1064, i32 %208, i32 10, i32 0, i32 1, i32 0, i8* getelementptr inbounds ([4 x i8]* @sub_namestr, i32 0, i32 0)), !llfi_injectfault !2
  %209 = sext i32 %fi177 to i64, !llfi_index !1066
  %fi178 = call i64 @injectFault6(i64 1065, i64 %209, i32 35, i32 0, i32 1, i32 0, i8* getelementptr inbounds ([5 x i8]* @sext_namestr, i32 0, i32 0)), !llfi_injectfault !2
  call void @_Z12free_dvectorPdll(double* %fi175, i64 0, i64 %fi178), !llfi_index !1067
  %210 = load double*** %fi9, align 8, !llfi_index !1068
  %fi179 = call double** @injectFault8(i64 1067, double** %210, i32 27, i32 0, i32 1, i32 0, i8* getelementptr inbounds ([5 x i8]* @load_namestr, i32 0, i32 0)), !llfi_injectfault !2
  %211 = load i32* %fi2, align 4, !llfi_index !1069
  %fi180 = call i32 @injectFault5(i64 1068, i32 %211, i32 27, i32 0, i32 1, i32 0, i8* getelementptr inbounds ([5 x i8]* @load_namestr, i32 0, i32 0)), !llfi_injectfault !2
  %212 = sub nsw i32 %fi180, 1, !llfi_index !1070
  %fi181 = call i32 @injectFault5(i64 1069, i32 %212, i32 10, i32 0, i32 1, i32 0, i8* getelementptr inbounds ([4 x i8]* @sub_namestr, i32 0, i32 0)), !llfi_injectfault !2
  %213 = sext i32 %fi181 to i64, !llfi_index !1071
  %fi182 = call i64 @injectFault6(i64 1070, i64 %213, i32 35, i32 0, i32 1, i32 0, i8* getelementptr inbounds ([5 x i8]* @sext_namestr, i32 0, i32 0)), !llfi_injectfault !2
  %214 = load i32* %fi1, align 4, !llfi_index !1072
  %fi183 = call i32 @injectFault5(i64 1071, i32 %214, i32 27, i32 0, i32 1, i32 0, i8* getelementptr inbounds ([5 x i8]* @load_namestr, i32 0, i32 0)), !llfi_injectfault !2
  %215 = sub nsw i32 %fi183, 2, !llfi_index !1073
  %fi184 = call i32 @injectFault5(i64 1072, i32 %215, i32 10, i32 0, i32 1, i32 0, i8* getelementptr inbounds ([4 x i8]* @sub_namestr, i32 0, i32 0)), !llfi_injectfault !2
  %216 = sext i32 %fi184 to i64, !llfi_index !1074
  %fi185 = call i64 @injectFault6(i64 1073, i64 %216, i32 35, i32 0, i32 1, i32 0, i8* getelementptr inbounds ([5 x i8]* @sext_namestr, i32 0, i32 0)), !llfi_injectfault !2
  call void @_Z12free_dmatrixPPdllll(double** %fi179, i64 0, i64 %fi182, i64 0, i64 %fi185), !llfi_index !1075
  store i32 1, i32* %fi4, align 4, !llfi_index !1076
  %217 = load i32* %fi4, align 4, !llfi_index !1077
  %fi186 = call i32 @injectFault5(i64 1076, i32 %217, i32 27, i32 0, i32 1, i32 0, i8* getelementptr inbounds ([5 x i8]* @load_namestr, i32 0, i32 0)), !llfi_injectfault !2
  ret i32 %fi186, !llfi_index !1078
}

; Function Attrs: nounwind uwtable
define i32 @_Z20HJM_Forward_to_YieldPdiS_(double* %pdYield, i32 %iN, double* %pdForward) #0 {
  %1 = alloca double*, align 8, !llfi_index !1079
  %fi = call double** @injectFault8(i64 1078, double** %1, i32 26, i32 0, i32 1, i32 0, i8* getelementptr inbounds ([7 x i8]* @alloca_namestr, i32 0, i32 0)), !llfi_injectfault !2
  %2 = alloca i32, align 4, !llfi_index !1080
  %fi1 = call i32* @injectFault2(i64 1079, i32* %2, i32 26, i32 0, i32 1, i32 0, i8* getelementptr inbounds ([7 x i8]* @alloca_namestr, i32 0, i32 0)), !llfi_injectfault !2
  %3 = alloca double*, align 8, !llfi_index !1081
  %fi2 = call double** @injectFault8(i64 1080, double** %3, i32 26, i32 0, i32 1, i32 0, i8* getelementptr inbounds ([7 x i8]* @alloca_namestr, i32 0, i32 0)), !llfi_injectfault !2
  %iSuccess = alloca i32, align 4, !llfi_index !1082
  %fi3 = call i32* @injectFault2(i64 1081, i32* %iSuccess, i32 26, i32 0, i32 1, i32 0, i8* getelementptr inbounds ([7 x i8]* @alloca_namestr, i32 0, i32 0)), !llfi_injectfault !2
  %i = alloca i32, align 4, !llfi_index !1083
  %fi4 = call i32* @injectFault2(i64 1082, i32* %i, i32 26, i32 0, i32 1, i32 0, i8* getelementptr inbounds ([7 x i8]* @alloca_namestr, i32 0, i32 0)), !llfi_injectfault !2
  store double* %pdYield, double** %fi, align 8, !llfi_index !1084
  store i32 %iN, i32* %fi1, align 4, !llfi_index !1085
  store double* %pdForward, double** %fi2, align 8, !llfi_index !1086
  store i32 0, i32* %fi3, align 4, !llfi_index !1087
  %4 = load double** %fi2, align 8, !llfi_index !1088
  %fi5 = call double* @injectFault3(i64 1087, double* %4, i32 27, i32 0, i32 1, i32 0, i8* getelementptr inbounds ([5 x i8]* @load_namestr, i32 0, i32 0)), !llfi_injectfault !2
  %5 = getelementptr double* %fi5, i64 0, !llfi_index !1089
  %fi6 = call double* @injectFault3(i64 1088, double* %5, i32 29, i32 0, i32 1, i32 0, i8* getelementptr inbounds ([14 x i8]* @getelementptr_namestr, i32 0, i32 0)), !llfi_injectfault !2
  %6 = load double* %fi6, align 8, !llfi_index !1090
  %fi7 = call double @injectFault0(i64 1089, double %6, i32 27, i32 0, i32 1, i32 0, i8* getelementptr inbounds ([5 x i8]* @load_namestr, i32 0, i32 0)), !llfi_injectfault !2
  %7 = load double** %fi, align 8, !llfi_index !1091
  %fi8 = call double* @injectFault3(i64 1090, double* %7, i32 27, i32 0, i32 1, i32 0, i8* getelementptr inbounds ([5 x i8]* @load_namestr, i32 0, i32 0)), !llfi_injectfault !2
  %8 = getelementptr double* %fi8, i64 0, !llfi_index !1092
  %fi9 = call double* @injectFault3(i64 1091, double* %8, i32 29, i32 0, i32 1, i32 0, i8* getelementptr inbounds ([14 x i8]* @getelementptr_namestr, i32 0, i32 0)), !llfi_injectfault !2
  store double %fi7, double* %fi9, align 8, !llfi_index !1093
  store i32 1, i32* %fi4, align 4, !llfi_index !1094
  br label %9, !llfi_index !1095

; <label>:9                                       ; preds = %38, %0
  %10 = load i32* %fi4, align 4, !llfi_index !1096
  %fi11 = call i32 @injectFault5(i64 1095, i32 %10, i32 27, i32 0, i32 1, i32 0, i8* getelementptr inbounds ([5 x i8]* @load_namestr, i32 0, i32 0)), !llfi_injectfault !2
  %11 = load i32* %fi1, align 4, !llfi_index !1097
  %fi12 = call i32 @injectFault5(i64 1096, i32 %11, i32 27, i32 0, i32 1, i32 0, i8* getelementptr inbounds ([5 x i8]* @load_namestr, i32 0, i32 0)), !llfi_injectfault !2
  %12 = sub nsw i32 %fi12, 1, !llfi_index !1098
  %fi13 = call i32 @injectFault5(i64 1097, i32 %12, i32 10, i32 0, i32 1, i32 0, i8* getelementptr inbounds ([4 x i8]* @sub_namestr, i32 0, i32 0)), !llfi_injectfault !2
  %13 = icmp sle i32 %fi11, %fi13, !llfi_index !1099
  %fi14 = call i1 @injectFault4(i64 1098, i1 %13, i32 46, i32 0, i32 1, i32 0, i8* getelementptr inbounds ([5 x i8]* @icmp_namestr, i32 0, i32 0)), !llfi_injectfault !2
  br i1 %fi14, label %14, label %41, !llfi_index !1100

; <label>:14                                      ; preds = %9
  %15 = load i32* %fi4, align 4, !llfi_index !1101
  %fi15 = call i32 @injectFault5(i64 1100, i32 %15, i32 27, i32 0, i32 1, i32 0, i8* getelementptr inbounds ([5 x i8]* @load_namestr, i32 0, i32 0)), !llfi_injectfault !2
  %16 = sitofp i32 %fi15 to double, !llfi_index !1102
  %fi16 = call double @injectFault0(i64 1101, double %16, i32 39, i32 0, i32 1, i32 0, i8* getelementptr inbounds ([7 x i8]* @sitofp_namestr, i32 0, i32 0)), !llfi_injectfault !2
  %17 = load i32* %fi4, align 4, !llfi_index !1103
  %fi10 = call i32 @injectFault5(i64 1102, i32 %17, i32 27, i32 0, i32 1, i32 0, i8* getelementptr inbounds ([5 x i8]* @load_namestr, i32 0, i32 0)), !llfi_injectfault !2
  %18 = sub nsw i32 %fi10, 1, !llfi_index !1104
  %fi18 = call i32 @injectFault5(i64 1103, i32 %18, i32 10, i32 0, i32 1, i32 0, i8* getelementptr inbounds ([4 x i8]* @sub_namestr, i32 0, i32 0)), !llfi_injectfault !2
  %19 = sext i32 %fi18 to i64, !llfi_index !1105
  %fi19 = call i64 @injectFault6(i64 1104, i64 %19, i32 35, i32 0, i32 1, i32 0, i8* getelementptr inbounds ([5 x i8]* @sext_namestr, i32 0, i32 0)), !llfi_injectfault !2
  %20 = load double** %fi, align 8, !llfi_index !1106
  %fi20 = call double* @injectFault3(i64 1105, double* %20, i32 27, i32 0, i32 1, i32 0, i8* getelementptr inbounds ([5 x i8]* @load_namestr, i32 0, i32 0)), !llfi_injectfault !2
  %21 = getelementptr double* %fi20, i64 %fi19, !llfi_index !1107
  %fi21 = call double* @injectFault3(i64 1106, double* %21, i32 29, i32 0, i32 1, i32 0, i8* getelementptr inbounds ([14 x i8]* @getelementptr_namestr, i32 0, i32 0)), !llfi_injectfault !2
  %22 = load double* %fi21, align 8, !llfi_index !1108
  %fi22 = call double @injectFault0(i64 1107, double %22, i32 27, i32 0, i32 1, i32 0, i8* getelementptr inbounds ([5 x i8]* @load_namestr, i32 0, i32 0)), !llfi_injectfault !2
  %23 = fmul double %fi16, %fi22, !llfi_index !1109
  %fi23 = call double @injectFault0(i64 1108, double %23, i32 13, i32 0, i32 1, i32 0, i8* getelementptr inbounds ([5 x i8]* @fmul_namestr, i32 0, i32 0)), !llfi_injectfault !2
  %24 = load i32* %fi4, align 4, !llfi_index !1110
  %fi24 = call i32 @injectFault5(i64 1109, i32 %24, i32 27, i32 0, i32 1, i32 0, i8* getelementptr inbounds ([5 x i8]* @load_namestr, i32 0, i32 0)), !llfi_injectfault !2
  %25 = sext i32 %fi24 to i64, !llfi_index !1111
  %fi25 = call i64 @injectFault6(i64 1110, i64 %25, i32 35, i32 0, i32 1, i32 0, i8* getelementptr inbounds ([5 x i8]* @sext_namestr, i32 0, i32 0)), !llfi_injectfault !2
  %26 = load double** %fi2, align 8, !llfi_index !1112
  %fi26 = call double* @injectFault3(i64 1111, double* %26, i32 27, i32 0, i32 1, i32 0, i8* getelementptr inbounds ([5 x i8]* @load_namestr, i32 0, i32 0)), !llfi_injectfault !2
  %27 = getelementptr double* %fi26, i64 %fi25, !llfi_index !1113
  %fi27 = call double* @injectFault3(i64 1112, double* %27, i32 29, i32 0, i32 1, i32 0, i8* getelementptr inbounds ([14 x i8]* @getelementptr_namestr, i32 0, i32 0)), !llfi_injectfault !2
  %28 = load double* %fi27, align 8, !llfi_index !1114
  %fi28 = call double @injectFault0(i64 1113, double %28, i32 27, i32 0, i32 1, i32 0, i8* getelementptr inbounds ([5 x i8]* @load_namestr, i32 0, i32 0)), !llfi_injectfault !2
  %29 = fadd double %fi23, %fi28, !llfi_index !1115
  %fi29 = call double @injectFault0(i64 1114, double %29, i32 9, i32 0, i32 1, i32 0, i8* getelementptr inbounds ([5 x i8]* @fadd_namestr, i32 0, i32 0)), !llfi_injectfault !2
  %30 = load i32* %fi4, align 4, !llfi_index !1116
  %fi30 = call i32 @injectFault5(i64 1115, i32 %30, i32 27, i32 0, i32 1, i32 0, i8* getelementptr inbounds ([5 x i8]* @load_namestr, i32 0, i32 0)), !llfi_injectfault !2
  %31 = add nsw i32 %fi30, 1, !llfi_index !1117
  %fi31 = call i32 @injectFault5(i64 1116, i32 %31, i32 8, i32 0, i32 1, i32 0, i8* getelementptr inbounds ([4 x i8]* @add_namestr, i32 0, i32 0)), !llfi_injectfault !2
  %32 = sitofp i32 %fi31 to double, !llfi_index !1118
  %fi32 = call double @injectFault0(i64 1117, double %32, i32 39, i32 0, i32 1, i32 0, i8* getelementptr inbounds ([7 x i8]* @sitofp_namestr, i32 0, i32 0)), !llfi_injectfault !2
  %33 = fdiv double %fi29, %fi32, !llfi_index !1119
  %fi17 = call double @injectFault0(i64 1118, double %33, i32 16, i32 0, i32 1, i32 0, i8* getelementptr inbounds ([5 x i8]* @fdiv_namestr, i32 0, i32 0)), !llfi_injectfault !2
  %34 = load i32* %fi4, align 4, !llfi_index !1120
  %fi33 = call i32 @injectFault5(i64 1119, i32 %34, i32 27, i32 0, i32 1, i32 0, i8* getelementptr inbounds ([5 x i8]* @load_namestr, i32 0, i32 0)), !llfi_injectfault !2
  %35 = sext i32 %fi33 to i64, !llfi_index !1121
  %fi34 = call i64 @injectFault6(i64 1120, i64 %35, i32 35, i32 0, i32 1, i32 0, i8* getelementptr inbounds ([5 x i8]* @sext_namestr, i32 0, i32 0)), !llfi_injectfault !2
  %36 = load double** %fi, align 8, !llfi_index !1122
  %fi35 = call double* @injectFault3(i64 1121, double* %36, i32 27, i32 0, i32 1, i32 0, i8* getelementptr inbounds ([5 x i8]* @load_namestr, i32 0, i32 0)), !llfi_injectfault !2
  %37 = getelementptr double* %fi35, i64 %fi34, !llfi_index !1123
  %fi36 = call double* @injectFault3(i64 1122, double* %37, i32 29, i32 0, i32 1, i32 0, i8* getelementptr inbounds ([14 x i8]* @getelementptr_namestr, i32 0, i32 0)), !llfi_injectfault !2
  store double %fi17, double* %fi36, align 8, !llfi_index !1124
  br label %38, !llfi_index !1125

; <label>:38                                      ; preds = %14
  %39 = load i32* %fi4, align 4, !llfi_index !1126
  %fi37 = call i32 @injectFault5(i64 1125, i32 %39, i32 27, i32 0, i32 1, i32 0, i8* getelementptr inbounds ([5 x i8]* @load_namestr, i32 0, i32 0)), !llfi_injectfault !2
  %40 = add nsw i32 %fi37, 1, !llfi_index !1127
  %fi38 = call i32 @injectFault5(i64 1126, i32 %40, i32 8, i32 0, i32 1, i32 0, i8* getelementptr inbounds ([4 x i8]* @add_namestr, i32 0, i32 0)), !llfi_injectfault !2
  store i32 %fi38, i32* %fi4, align 4, !llfi_index !1128
  br label %9, !llfi_index !1129

; <label>:41                                      ; preds = %9
  store i32 1, i32* %fi3, align 4, !llfi_index !1130
  %42 = load i32* %fi3, align 4, !llfi_index !1131
  %fi39 = call i32 @injectFault5(i64 1130, i32 %42, i32 27, i32 0, i32 1, i32 0, i8* getelementptr inbounds ([5 x i8]* @load_namestr, i32 0, i32 0)), !llfi_injectfault !2
  ret i32 %fi39, !llfi_index !1132
}

; Function Attrs: nounwind uwtable
define i32 @_Z16Discount_FactorsPdidS_(double* %pdDiscountFactors, i32 %iN, double %dYears, double* %pdRatePath) #0 {
  %1 = alloca double*, align 8, !llfi_index !1133
  %fi = call double** @injectFault8(i64 1132, double** %1, i32 26, i32 0, i32 1, i32 0, i8* getelementptr inbounds ([7 x i8]* @alloca_namestr, i32 0, i32 0)), !llfi_injectfault !2
  %2 = alloca i32, align 4, !llfi_index !1134
  %fi1 = call i32* @injectFault2(i64 1133, i32* %2, i32 26, i32 0, i32 1, i32 0, i8* getelementptr inbounds ([7 x i8]* @alloca_namestr, i32 0, i32 0)), !llfi_injectfault !2
  %3 = alloca double, align 8, !llfi_index !1135
  %fi2 = call double* @injectFault3(i64 1134, double* %3, i32 26, i32 0, i32 1, i32 0, i8* getelementptr inbounds ([7 x i8]* @alloca_namestr, i32 0, i32 0)), !llfi_injectfault !2
  %4 = alloca double*, align 8, !llfi_index !1136
  %fi3 = call double** @injectFault8(i64 1135, double** %4, i32 26, i32 0, i32 1, i32 0, i8* getelementptr inbounds ([7 x i8]* @alloca_namestr, i32 0, i32 0)), !llfi_injectfault !2
  %i = alloca i32, align 4, !llfi_index !1137
  %fi4 = call i32* @injectFault2(i64 1136, i32* %i, i32 26, i32 0, i32 1, i32 0, i8* getelementptr inbounds ([7 x i8]* @alloca_namestr, i32 0, i32 0)), !llfi_injectfault !2
  %j = alloca i32, align 4, !llfi_index !1138
  %fi5 = call i32* @injectFault2(i64 1137, i32* %j, i32 26, i32 0, i32 1, i32 0, i8* getelementptr inbounds ([7 x i8]* @alloca_namestr, i32 0, i32 0)), !llfi_injectfault !2
  %iSuccess = alloca i32, align 4, !llfi_index !1139
  %fi6 = call i32* @injectFault2(i64 1138, i32* %iSuccess, i32 26, i32 0, i32 1, i32 0, i8* getelementptr inbounds ([7 x i8]* @alloca_namestr, i32 0, i32 0)), !llfi_injectfault !2
  %ddelt = alloca double, align 8, !llfi_index !1140
  %fi7 = call double* @injectFault3(i64 1139, double* %ddelt, i32 26, i32 0, i32 1, i32 0, i8* getelementptr inbounds ([7 x i8]* @alloca_namestr, i32 0, i32 0)), !llfi_injectfault !2
  store double* %pdDiscountFactors, double** %fi, align 8, !llfi_index !1141
  store i32 %iN, i32* %fi1, align 4, !llfi_index !1142
  store double %dYears, double* %fi2, align 8, !llfi_index !1143
  store double* %pdRatePath, double** %fi3, align 8, !llfi_index !1144
  %5 = load double* %fi2, align 8, !llfi_index !1145
  %fi8 = call double @injectFault0(i64 1144, double %5, i32 27, i32 0, i32 1, i32 0, i8* getelementptr inbounds ([5 x i8]* @load_namestr, i32 0, i32 0)), !llfi_injectfault !2
  %6 = load i32* %fi1, align 4, !llfi_index !1146
  %fi9 = call i32 @injectFault5(i64 1145, i32 %6, i32 27, i32 0, i32 1, i32 0, i8* getelementptr inbounds ([5 x i8]* @load_namestr, i32 0, i32 0)), !llfi_injectfault !2
  %7 = sitofp i32 %fi9 to double, !llfi_index !1147
  %fi10 = call double @injectFault0(i64 1146, double %7, i32 39, i32 0, i32 1, i32 0, i8* getelementptr inbounds ([7 x i8]* @sitofp_namestr, i32 0, i32 0)), !llfi_injectfault !2
  %8 = fdiv double %fi8, %fi10, !llfi_index !1148
  %fi11 = call double @injectFault0(i64 1147, double %8, i32 16, i32 0, i32 1, i32 0, i8* getelementptr inbounds ([5 x i8]* @fdiv_namestr, i32 0, i32 0)), !llfi_injectfault !2
  store double %fi11, double* %fi7, align 8, !llfi_index !1149
  store i32 0, i32* %fi4, align 4, !llfi_index !1150
  br label %9, !llfi_index !1151

; <label>:9                                       ; preds = %19, %0
  %10 = load i32* %fi4, align 4, !llfi_index !1152
  %fi13 = call i32 @injectFault5(i64 1151, i32 %10, i32 27, i32 0, i32 1, i32 0, i8* getelementptr inbounds ([5 x i8]* @load_namestr, i32 0, i32 0)), !llfi_injectfault !2
  %11 = load i32* %fi1, align 4, !llfi_index !1153
  %fi14 = call i32 @injectFault5(i64 1152, i32 %11, i32 27, i32 0, i32 1, i32 0, i8* getelementptr inbounds ([5 x i8]* @load_namestr, i32 0, i32 0)), !llfi_injectfault !2
  %12 = sub nsw i32 %fi14, 1, !llfi_index !1154
  %fi15 = call i32 @injectFault5(i64 1153, i32 %12, i32 10, i32 0, i32 1, i32 0, i8* getelementptr inbounds ([4 x i8]* @sub_namestr, i32 0, i32 0)), !llfi_injectfault !2
  %13 = icmp sle i32 %fi13, %fi15, !llfi_index !1155
  %fi16 = call i1 @injectFault4(i64 1154, i1 %13, i32 46, i32 0, i32 1, i32 0, i8* getelementptr inbounds ([5 x i8]* @icmp_namestr, i32 0, i32 0)), !llfi_injectfault !2
  br i1 %fi16, label %14, label %22, !llfi_index !1156

; <label>:14                                      ; preds = %9
  %15 = load i32* %fi4, align 4, !llfi_index !1157
  %fi17 = call i32 @injectFault5(i64 1156, i32 %15, i32 27, i32 0, i32 1, i32 0, i8* getelementptr inbounds ([5 x i8]* @load_namestr, i32 0, i32 0)), !llfi_injectfault !2
  %16 = sext i32 %fi17 to i64, !llfi_index !1158
  %fi18 = call i64 @injectFault6(i64 1157, i64 %16, i32 35, i32 0, i32 1, i32 0, i8* getelementptr inbounds ([5 x i8]* @sext_namestr, i32 0, i32 0)), !llfi_injectfault !2
  %17 = load double** %fi, align 8, !llfi_index !1159
  %fi12 = call double* @injectFault3(i64 1158, double* %17, i32 27, i32 0, i32 1, i32 0, i8* getelementptr inbounds ([5 x i8]* @load_namestr, i32 0, i32 0)), !llfi_injectfault !2
  %18 = getelementptr double* %fi12, i64 %fi18, !llfi_index !1160
  %fi20 = call double* @injectFault3(i64 1159, double* %18, i32 29, i32 0, i32 1, i32 0, i8* getelementptr inbounds ([14 x i8]* @getelementptr_namestr, i32 0, i32 0)), !llfi_injectfault !2
  store double 1.000000e+00, double* %fi20, align 8, !llfi_index !1161
  br label %19, !llfi_index !1162

; <label>:19                                      ; preds = %14
  %20 = load i32* %fi4, align 4, !llfi_index !1163
  %fi21 = call i32 @injectFault5(i64 1162, i32 %20, i32 27, i32 0, i32 1, i32 0, i8* getelementptr inbounds ([5 x i8]* @load_namestr, i32 0, i32 0)), !llfi_injectfault !2
  %21 = add nsw i32 %fi21, 1, !llfi_index !1164
  %fi22 = call i32 @injectFault5(i64 1163, i32 %21, i32 8, i32 0, i32 1, i32 0, i8* getelementptr inbounds ([4 x i8]* @add_namestr, i32 0, i32 0)), !llfi_injectfault !2
  store i32 %fi22, i32* %fi4, align 4, !llfi_index !1165
  br label %9, !llfi_index !1166

; <label>:22                                      ; preds = %9
  store i32 1, i32* %fi4, align 4, !llfi_index !1167
  br label %23, !llfi_index !1168

; <label>:23                                      ; preds = %54, %22
  %24 = load i32* %fi4, align 4, !llfi_index !1169
  %fi23 = call i32 @injectFault5(i64 1168, i32 %24, i32 27, i32 0, i32 1, i32 0, i8* getelementptr inbounds ([5 x i8]* @load_namestr, i32 0, i32 0)), !llfi_injectfault !2
  %25 = load i32* %fi1, align 4, !llfi_index !1170
  %fi24 = call i32 @injectFault5(i64 1169, i32 %25, i32 27, i32 0, i32 1, i32 0, i8* getelementptr inbounds ([5 x i8]* @load_namestr, i32 0, i32 0)), !llfi_injectfault !2
  %26 = sub nsw i32 %fi24, 1, !llfi_index !1171
  %fi25 = call i32 @injectFault5(i64 1170, i32 %26, i32 10, i32 0, i32 1, i32 0, i8* getelementptr inbounds ([4 x i8]* @sub_namestr, i32 0, i32 0)), !llfi_injectfault !2
  %27 = icmp sle i32 %fi23, %fi25, !llfi_index !1172
  %fi26 = call i1 @injectFault4(i64 1171, i1 %27, i32 46, i32 0, i32 1, i32 0, i8* getelementptr inbounds ([5 x i8]* @icmp_namestr, i32 0, i32 0)), !llfi_injectfault !2
  br i1 %fi26, label %28, label %57, !llfi_index !1173

; <label>:28                                      ; preds = %23
  store i32 0, i32* %fi5, align 4, !llfi_index !1174
  br label %29, !llfi_index !1175

; <label>:29                                      ; preds = %50, %28
  %30 = load i32* %fi5, align 4, !llfi_index !1176
  %fi27 = call i32 @injectFault5(i64 1175, i32 %30, i32 27, i32 0, i32 1, i32 0, i8* getelementptr inbounds ([5 x i8]* @load_namestr, i32 0, i32 0)), !llfi_injectfault !2
  %31 = load i32* %fi4, align 4, !llfi_index !1177
  %fi28 = call i32 @injectFault5(i64 1176, i32 %31, i32 27, i32 0, i32 1, i32 0, i8* getelementptr inbounds ([5 x i8]* @load_namestr, i32 0, i32 0)), !llfi_injectfault !2
  %32 = sub nsw i32 %fi28, 1, !llfi_index !1178
  %fi29 = call i32 @injectFault5(i64 1177, i32 %32, i32 10, i32 0, i32 1, i32 0, i8* getelementptr inbounds ([4 x i8]* @sub_namestr, i32 0, i32 0)), !llfi_injectfault !2
  %33 = icmp sle i32 %fi27, %fi29, !llfi_index !1179
  %fi19 = call i1 @injectFault4(i64 1178, i1 %33, i32 46, i32 0, i32 1, i32 0, i8* getelementptr inbounds ([5 x i8]* @icmp_namestr, i32 0, i32 0)), !llfi_injectfault !2
  br i1 %fi19, label %34, label %53, !llfi_index !1180

; <label>:34                                      ; preds = %29
  %35 = load i32* %fi5, align 4, !llfi_index !1181
  %fi30 = call i32 @injectFault5(i64 1180, i32 %35, i32 27, i32 0, i32 1, i32 0, i8* getelementptr inbounds ([5 x i8]* @load_namestr, i32 0, i32 0)), !llfi_injectfault !2
  %36 = sext i32 %fi30 to i64, !llfi_index !1182
  %fi31 = call i64 @injectFault6(i64 1181, i64 %36, i32 35, i32 0, i32 1, i32 0, i8* getelementptr inbounds ([5 x i8]* @sext_namestr, i32 0, i32 0)), !llfi_injectfault !2
  %37 = load double** %fi3, align 8, !llfi_index !1183
  %fi32 = call double* @injectFault3(i64 1182, double* %37, i32 27, i32 0, i32 1, i32 0, i8* getelementptr inbounds ([5 x i8]* @load_namestr, i32 0, i32 0)), !llfi_injectfault !2
  %38 = getelementptr double* %fi32, i64 %fi31, !llfi_index !1184
  %fi33 = call double* @injectFault3(i64 1183, double* %38, i32 29, i32 0, i32 1, i32 0, i8* getelementptr inbounds ([14 x i8]* @getelementptr_namestr, i32 0, i32 0)), !llfi_injectfault !2
  %39 = load double* %fi33, align 8, !llfi_index !1185
  %fi34 = call double @injectFault0(i64 1184, double %39, i32 27, i32 0, i32 1, i32 0, i8* getelementptr inbounds ([5 x i8]* @load_namestr, i32 0, i32 0)), !llfi_injectfault !2
  %40 = fsub double -0.000000e+00, %fi34, !llfi_index !1186
  %fi35 = call double @injectFault0(i64 1185, double %40, i32 11, i32 0, i32 1, i32 0, i8* getelementptr inbounds ([5 x i8]* @fsub_namestr, i32 0, i32 0)), !llfi_injectfault !2
  %41 = load double* %fi7, align 8, !llfi_index !1187
  %fi36 = call double @injectFault0(i64 1186, double %41, i32 27, i32 0, i32 1, i32 0, i8* getelementptr inbounds ([5 x i8]* @load_namestr, i32 0, i32 0)), !llfi_injectfault !2
  %42 = fmul double %fi35, %fi36, !llfi_index !1188
  %fi37 = call double @injectFault0(i64 1187, double %42, i32 13, i32 0, i32 1, i32 0, i8* getelementptr inbounds ([5 x i8]* @fmul_namestr, i32 0, i32 0)), !llfi_injectfault !2
  %43 = call double @exp(double %fi37) #5, !llfi_index !1189
  %fi38 = call double @injectFault0(i64 1188, double %43, i32 49, i32 0, i32 1, i32 0, i8* getelementptr inbounds ([5 x i8]* @call_namestr, i32 0, i32 0)), !llfi_injectfault !2
  %44 = load i32* %fi4, align 4, !llfi_index !1190
  %fi39 = call i32 @injectFault5(i64 1189, i32 %44, i32 27, i32 0, i32 1, i32 0, i8* getelementptr inbounds ([5 x i8]* @load_namestr, i32 0, i32 0)), !llfi_injectfault !2
  %45 = sext i32 %fi39 to i64, !llfi_index !1191
  %fi40 = call i64 @injectFault6(i64 1190, i64 %45, i32 35, i32 0, i32 1, i32 0, i8* getelementptr inbounds ([5 x i8]* @sext_namestr, i32 0, i32 0)), !llfi_injectfault !2
  %46 = load double** %fi, align 8, !llfi_index !1192
  %fi41 = call double* @injectFault3(i64 1191, double* %46, i32 27, i32 0, i32 1, i32 0, i8* getelementptr inbounds ([5 x i8]* @load_namestr, i32 0, i32 0)), !llfi_injectfault !2
  %47 = getelementptr double* %fi41, i64 %fi40, !llfi_index !1193
  %fi42 = call double* @injectFault3(i64 1192, double* %47, i32 29, i32 0, i32 1, i32 0, i8* getelementptr inbounds ([14 x i8]* @getelementptr_namestr, i32 0, i32 0)), !llfi_injectfault !2
  %48 = load double* %fi42, align 8, !llfi_index !1194
  %fi43 = call double @injectFault0(i64 1193, double %48, i32 27, i32 0, i32 1, i32 0, i8* getelementptr inbounds ([5 x i8]* @load_namestr, i32 0, i32 0)), !llfi_injectfault !2
  %49 = fmul double %fi43, %fi38, !llfi_index !1195
  %fi44 = call double @injectFault0(i64 1194, double %49, i32 13, i32 0, i32 1, i32 0, i8* getelementptr inbounds ([5 x i8]* @fmul_namestr, i32 0, i32 0)), !llfi_injectfault !2
  store double %fi44, double* %fi42, align 8, !llfi_index !1196
  br label %50, !llfi_index !1197

; <label>:50                                      ; preds = %34
  %51 = load i32* %fi5, align 4, !llfi_index !1198
  %fi45 = call i32 @injectFault5(i64 1197, i32 %51, i32 27, i32 0, i32 1, i32 0, i8* getelementptr inbounds ([5 x i8]* @load_namestr, i32 0, i32 0)), !llfi_injectfault !2
  %52 = add nsw i32 %fi45, 1, !llfi_index !1199
  %fi46 = call i32 @injectFault5(i64 1198, i32 %52, i32 8, i32 0, i32 1, i32 0, i8* getelementptr inbounds ([4 x i8]* @add_namestr, i32 0, i32 0)), !llfi_injectfault !2
  store i32 %fi46, i32* %fi5, align 4, !llfi_index !1200
  br label %29, !llfi_index !1201

; <label>:53                                      ; preds = %29
  br label %54, !llfi_index !1202

; <label>:54                                      ; preds = %53
  %55 = load i32* %fi4, align 4, !llfi_index !1203
  %fi47 = call i32 @injectFault5(i64 1202, i32 %55, i32 27, i32 0, i32 1, i32 0, i8* getelementptr inbounds ([5 x i8]* @load_namestr, i32 0, i32 0)), !llfi_injectfault !2
  %56 = add nsw i32 %fi47, 1, !llfi_index !1204
  %fi48 = call i32 @injectFault5(i64 1203, i32 %56, i32 8, i32 0, i32 1, i32 0, i8* getelementptr inbounds ([4 x i8]* @add_namestr, i32 0, i32 0)), !llfi_injectfault !2
  store i32 %fi48, i32* %fi4, align 4, !llfi_index !1205
  br label %23, !llfi_index !1206

; <label>:57                                      ; preds = %23
  store i32 1, i32* %fi6, align 4, !llfi_index !1207
  %58 = load i32* %fi6, align 4, !llfi_index !1208
  %fi49 = call i32 @injectFault5(i64 1207, i32 %58, i32 27, i32 0, i32 1, i32 0, i8* getelementptr inbounds ([5 x i8]* @load_namestr, i32 0, i32 0)), !llfi_injectfault !2
  ret i32 %fi49, !llfi_index !1209
}

; Function Attrs: nounwind
declare double @exp(double) #2

; Function Attrs: uwtable
define i32 @_Z20Discount_Factors_optPdidS_(double* %pdDiscountFactors, i32 %iN, double %dYears, double* %pdRatePath) #3 {
  %1 = alloca double*, align 8, !llfi_index !1210
  %fi = call double** @injectFault8(i64 1209, double** %1, i32 26, i32 0, i32 1, i32 0, i8* getelementptr inbounds ([7 x i8]* @alloca_namestr, i32 0, i32 0)), !llfi_injectfault !2
  %2 = alloca i32, align 4, !llfi_index !1211
  %fi1 = call i32* @injectFault2(i64 1210, i32* %2, i32 26, i32 0, i32 1, i32 0, i8* getelementptr inbounds ([7 x i8]* @alloca_namestr, i32 0, i32 0)), !llfi_injectfault !2
  %3 = alloca double, align 8, !llfi_index !1212
  %fi2 = call double* @injectFault3(i64 1211, double* %3, i32 26, i32 0, i32 1, i32 0, i8* getelementptr inbounds ([7 x i8]* @alloca_namestr, i32 0, i32 0)), !llfi_injectfault !2
  %4 = alloca double*, align 8, !llfi_index !1213
  %fi3 = call double** @injectFault8(i64 1212, double** %4, i32 26, i32 0, i32 1, i32 0, i8* getelementptr inbounds ([7 x i8]* @alloca_namestr, i32 0, i32 0)), !llfi_injectfault !2
  %i = alloca i32, align 4, !llfi_index !1214
  %fi4 = call i32* @injectFault2(i64 1213, i32* %i, i32 26, i32 0, i32 1, i32 0, i8* getelementptr inbounds ([7 x i8]* @alloca_namestr, i32 0, i32 0)), !llfi_injectfault !2
  %j = alloca i32, align 4, !llfi_index !1215
  %fi5 = call i32* @injectFault2(i64 1214, i32* %j, i32 26, i32 0, i32 1, i32 0, i8* getelementptr inbounds ([7 x i8]* @alloca_namestr, i32 0, i32 0)), !llfi_injectfault !2
  %iSuccess = alloca i32, align 4, !llfi_index !1216
  %fi6 = call i32* @injectFault2(i64 1215, i32* %iSuccess, i32 26, i32 0, i32 1, i32 0, i8* getelementptr inbounds ([7 x i8]* @alloca_namestr, i32 0, i32 0)), !llfi_injectfault !2
  %ddelt = alloca double, align 8, !llfi_index !1217
  %fi7 = call double* @injectFault3(i64 1216, double* %ddelt, i32 26, i32 0, i32 1, i32 0, i8* getelementptr inbounds ([7 x i8]* @alloca_namestr, i32 0, i32 0)), !llfi_injectfault !2
  %pdexpRes = alloca double*, align 8, !llfi_index !1218
  %fi8 = call double** @injectFault8(i64 1217, double** %pdexpRes, i32 26, i32 0, i32 1, i32 0, i8* getelementptr inbounds ([7 x i8]* @alloca_namestr, i32 0, i32 0)), !llfi_injectfault !2
  store double* %pdDiscountFactors, double** %fi, align 8, !llfi_index !1219
  store i32 %iN, i32* %fi1, align 4, !llfi_index !1220
  store double %dYears, double* %fi2, align 8, !llfi_index !1221
  store double* %pdRatePath, double** %fi3, align 8, !llfi_index !1222
  %5 = load double* %fi2, align 8, !llfi_index !1223
  %fi9 = call double @injectFault0(i64 1222, double %5, i32 27, i32 0, i32 1, i32 0, i8* getelementptr inbounds ([5 x i8]* @load_namestr, i32 0, i32 0)), !llfi_injectfault !2
  %6 = load i32* %fi1, align 4, !llfi_index !1224
  %fi10 = call i32 @injectFault5(i64 1223, i32 %6, i32 27, i32 0, i32 1, i32 0, i8* getelementptr inbounds ([5 x i8]* @load_namestr, i32 0, i32 0)), !llfi_injectfault !2
  %7 = sitofp i32 %fi10 to double, !llfi_index !1225
  %fi11 = call double @injectFault0(i64 1224, double %7, i32 39, i32 0, i32 1, i32 0, i8* getelementptr inbounds ([7 x i8]* @sitofp_namestr, i32 0, i32 0)), !llfi_injectfault !2
  %8 = fdiv double %fi9, %fi11, !llfi_index !1226
  %fi12 = call double @injectFault0(i64 1225, double %8, i32 16, i32 0, i32 1, i32 0, i8* getelementptr inbounds ([5 x i8]* @fdiv_namestr, i32 0, i32 0)), !llfi_injectfault !2
  store double %fi12, double* %fi7, align 8, !llfi_index !1227
  %9 = load i32* %fi1, align 4, !llfi_index !1228
  %fi14 = call i32 @injectFault5(i64 1227, i32 %9, i32 27, i32 0, i32 1, i32 0, i8* getelementptr inbounds ([5 x i8]* @load_namestr, i32 0, i32 0)), !llfi_injectfault !2
  %10 = sub nsw i32 %fi14, 2, !llfi_index !1229
  %fi15 = call i32 @injectFault5(i64 1228, i32 %10, i32 10, i32 0, i32 1, i32 0, i8* getelementptr inbounds ([4 x i8]* @sub_namestr, i32 0, i32 0)), !llfi_injectfault !2
  %11 = sext i32 %fi15 to i64, !llfi_index !1230
  %fi16 = call i64 @injectFault6(i64 1229, i64 %11, i32 35, i32 0, i32 1, i32 0, i8* getelementptr inbounds ([5 x i8]* @sext_namestr, i32 0, i32 0)), !llfi_injectfault !2
  %12 = call double* @_Z7dvectorll(i64 0, i64 %fi16), !llfi_index !1231
  %fi17 = call double* @injectFault3(i64 1230, double* %12, i32 49, i32 0, i32 1, i32 0, i8* getelementptr inbounds ([5 x i8]* @call_namestr, i32 0, i32 0)), !llfi_injectfault !2
  store double* %fi17, double** %fi8, align 8, !llfi_index !1232
  store i32 0, i32* %fi4, align 4, !llfi_index !1233
  br label %13, !llfi_index !1234

; <label>:13                                      ; preds = %23, %0
  %14 = load i32* %fi4, align 4, !llfi_index !1235
  %fi18 = call i32 @injectFault5(i64 1234, i32 %14, i32 27, i32 0, i32 1, i32 0, i8* getelementptr inbounds ([5 x i8]* @load_namestr, i32 0, i32 0)), !llfi_injectfault !2
  %15 = load i32* %fi1, align 4, !llfi_index !1236
  %fi19 = call i32 @injectFault5(i64 1235, i32 %15, i32 27, i32 0, i32 1, i32 0, i8* getelementptr inbounds ([5 x i8]* @load_namestr, i32 0, i32 0)), !llfi_injectfault !2
  %16 = sub nsw i32 %fi19, 1, !llfi_index !1237
  %fi20 = call i32 @injectFault5(i64 1236, i32 %16, i32 10, i32 0, i32 1, i32 0, i8* getelementptr inbounds ([4 x i8]* @sub_namestr, i32 0, i32 0)), !llfi_injectfault !2
  %17 = icmp sle i32 %fi18, %fi20, !llfi_index !1238
  %fi13 = call i1 @injectFault4(i64 1237, i1 %17, i32 46, i32 0, i32 1, i32 0, i8* getelementptr inbounds ([5 x i8]* @icmp_namestr, i32 0, i32 0)), !llfi_injectfault !2
  br i1 %fi13, label %18, label %26, !llfi_index !1239

; <label>:18                                      ; preds = %13
  %19 = load i32* %fi4, align 4, !llfi_index !1240
  %fi22 = call i32 @injectFault5(i64 1239, i32 %19, i32 27, i32 0, i32 1, i32 0, i8* getelementptr inbounds ([5 x i8]* @load_namestr, i32 0, i32 0)), !llfi_injectfault !2
  %20 = sext i32 %fi22 to i64, !llfi_index !1241
  %fi23 = call i64 @injectFault6(i64 1240, i64 %20, i32 35, i32 0, i32 1, i32 0, i8* getelementptr inbounds ([5 x i8]* @sext_namestr, i32 0, i32 0)), !llfi_injectfault !2
  %21 = load double** %fi, align 8, !llfi_index !1242
  %fi24 = call double* @injectFault3(i64 1241, double* %21, i32 27, i32 0, i32 1, i32 0, i8* getelementptr inbounds ([5 x i8]* @load_namestr, i32 0, i32 0)), !llfi_injectfault !2
  %22 = getelementptr double* %fi24, i64 %fi23, !llfi_index !1243
  %fi25 = call double* @injectFault3(i64 1242, double* %22, i32 29, i32 0, i32 1, i32 0, i8* getelementptr inbounds ([14 x i8]* @getelementptr_namestr, i32 0, i32 0)), !llfi_injectfault !2
  store double 1.000000e+00, double* %fi25, align 8, !llfi_index !1244
  br label %23, !llfi_index !1245

; <label>:23                                      ; preds = %18
  %24 = load i32* %fi4, align 4, !llfi_index !1246
  %fi26 = call i32 @injectFault5(i64 1245, i32 %24, i32 27, i32 0, i32 1, i32 0, i8* getelementptr inbounds ([5 x i8]* @load_namestr, i32 0, i32 0)), !llfi_injectfault !2
  %25 = add nsw i32 %fi26, 1, !llfi_index !1247
  %fi27 = call i32 @injectFault5(i64 1246, i32 %25, i32 8, i32 0, i32 1, i32 0, i8* getelementptr inbounds ([4 x i8]* @add_namestr, i32 0, i32 0)), !llfi_injectfault !2
  store i32 %fi27, i32* %fi4, align 4, !llfi_index !1248
  br label %13, !llfi_index !1249

; <label>:26                                      ; preds = %13
  store i32 0, i32* %fi5, align 4, !llfi_index !1250
  br label %27, !llfi_index !1251

; <label>:27                                      ; preds = %45, %26
  %28 = load i32* %fi5, align 4, !llfi_index !1252
  %fi28 = call i32 @injectFault5(i64 1251, i32 %28, i32 27, i32 0, i32 1, i32 0, i8* getelementptr inbounds ([5 x i8]* @load_namestr, i32 0, i32 0)), !llfi_injectfault !2
  %29 = load i32* %fi4, align 4, !llfi_index !1253
  %fi29 = call i32 @injectFault5(i64 1252, i32 %29, i32 27, i32 0, i32 1, i32 0, i8* getelementptr inbounds ([5 x i8]* @load_namestr, i32 0, i32 0)), !llfi_injectfault !2
  %30 = sub nsw i32 %fi29, 2, !llfi_index !1254
  %fi30 = call i32 @injectFault5(i64 1253, i32 %30, i32 10, i32 0, i32 1, i32 0, i8* getelementptr inbounds ([4 x i8]* @sub_namestr, i32 0, i32 0)), !llfi_injectfault !2
  %31 = icmp sle i32 %fi28, %fi30, !llfi_index !1255
  %fi31 = call i1 @injectFault4(i64 1254, i1 %31, i32 46, i32 0, i32 1, i32 0, i8* getelementptr inbounds ([5 x i8]* @icmp_namestr, i32 0, i32 0)), !llfi_injectfault !2
  br i1 %fi31, label %32, label %48, !llfi_index !1256

; <label>:32                                      ; preds = %27
  %33 = load i32* %fi5, align 4, !llfi_index !1257
  %fi21 = call i32 @injectFault5(i64 1256, i32 %33, i32 27, i32 0, i32 1, i32 0, i8* getelementptr inbounds ([5 x i8]* @load_namestr, i32 0, i32 0)), !llfi_injectfault !2
  %34 = sext i32 %fi21 to i64, !llfi_index !1258
  %fi32 = call i64 @injectFault6(i64 1257, i64 %34, i32 35, i32 0, i32 1, i32 0, i8* getelementptr inbounds ([5 x i8]* @sext_namestr, i32 0, i32 0)), !llfi_injectfault !2
  %35 = load double** %fi3, align 8, !llfi_index !1259
  %fi33 = call double* @injectFault3(i64 1258, double* %35, i32 27, i32 0, i32 1, i32 0, i8* getelementptr inbounds ([5 x i8]* @load_namestr, i32 0, i32 0)), !llfi_injectfault !2
  %36 = getelementptr double* %fi33, i64 %fi32, !llfi_index !1260
  %fi34 = call double* @injectFault3(i64 1259, double* %36, i32 29, i32 0, i32 1, i32 0, i8* getelementptr inbounds ([14 x i8]* @getelementptr_namestr, i32 0, i32 0)), !llfi_injectfault !2
  %37 = load double* %fi34, align 8, !llfi_index !1261
  %fi35 = call double @injectFault0(i64 1260, double %37, i32 27, i32 0, i32 1, i32 0, i8* getelementptr inbounds ([5 x i8]* @load_namestr, i32 0, i32 0)), !llfi_injectfault !2
  %38 = fsub double -0.000000e+00, %fi35, !llfi_index !1262
  %fi36 = call double @injectFault0(i64 1261, double %38, i32 11, i32 0, i32 1, i32 0, i8* getelementptr inbounds ([5 x i8]* @fsub_namestr, i32 0, i32 0)), !llfi_injectfault !2
  %39 = load double* %fi7, align 8, !llfi_index !1263
  %fi37 = call double @injectFault0(i64 1262, double %39, i32 27, i32 0, i32 1, i32 0, i8* getelementptr inbounds ([5 x i8]* @load_namestr, i32 0, i32 0)), !llfi_injectfault !2
  %40 = fmul double %fi36, %fi37, !llfi_index !1264
  %fi38 = call double @injectFault0(i64 1263, double %40, i32 13, i32 0, i32 1, i32 0, i8* getelementptr inbounds ([5 x i8]* @fmul_namestr, i32 0, i32 0)), !llfi_injectfault !2
  %41 = load i32* %fi5, align 4, !llfi_index !1265
  %fi39 = call i32 @injectFault5(i64 1264, i32 %41, i32 27, i32 0, i32 1, i32 0, i8* getelementptr inbounds ([5 x i8]* @load_namestr, i32 0, i32 0)), !llfi_injectfault !2
  %42 = sext i32 %fi39 to i64, !llfi_index !1266
  %fi40 = call i64 @injectFault6(i64 1265, i64 %42, i32 35, i32 0, i32 1, i32 0, i8* getelementptr inbounds ([5 x i8]* @sext_namestr, i32 0, i32 0)), !llfi_injectfault !2
  %43 = load double** %fi8, align 8, !llfi_index !1267
  %fi41 = call double* @injectFault3(i64 1266, double* %43, i32 27, i32 0, i32 1, i32 0, i8* getelementptr inbounds ([5 x i8]* @load_namestr, i32 0, i32 0)), !llfi_injectfault !2
  %44 = getelementptr double* %fi41, i64 %fi40, !llfi_index !1268
  %fi42 = call double* @injectFault3(i64 1267, double* %44, i32 29, i32 0, i32 1, i32 0, i8* getelementptr inbounds ([14 x i8]* @getelementptr_namestr, i32 0, i32 0)), !llfi_injectfault !2
  store double %fi38, double* %fi42, align 8, !llfi_index !1269
  br label %45, !llfi_index !1270

; <label>:45                                      ; preds = %32
  %46 = load i32* %fi5, align 4, !llfi_index !1271
  %fi43 = call i32 @injectFault5(i64 1270, i32 %46, i32 27, i32 0, i32 1, i32 0, i8* getelementptr inbounds ([5 x i8]* @load_namestr, i32 0, i32 0)), !llfi_injectfault !2
  %47 = add nsw i32 %fi43, 1, !llfi_index !1272
  %fi44 = call i32 @injectFault5(i64 1271, i32 %47, i32 8, i32 0, i32 1, i32 0, i8* getelementptr inbounds ([4 x i8]* @add_namestr, i32 0, i32 0)), !llfi_injectfault !2
  store i32 %fi44, i32* %fi5, align 4, !llfi_index !1273
  br label %27, !llfi_index !1274

; <label>:48                                      ; preds = %27
  store i32 0, i32* %fi5, align 4, !llfi_index !1275
  br label %49, !llfi_index !1276

; <label>:49                                      ; preds = %65, %48
  %50 = load i32* %fi5, align 4, !llfi_index !1277
  %fi45 = call i32 @injectFault5(i64 1276, i32 %50, i32 27, i32 0, i32 1, i32 0, i8* getelementptr inbounds ([5 x i8]* @load_namestr, i32 0, i32 0)), !llfi_injectfault !2
  %51 = load i32* %fi4, align 4, !llfi_index !1278
  %fi46 = call i32 @injectFault5(i64 1277, i32 %51, i32 27, i32 0, i32 1, i32 0, i8* getelementptr inbounds ([5 x i8]* @load_namestr, i32 0, i32 0)), !llfi_injectfault !2
  %52 = sub nsw i32 %fi46, 2, !llfi_index !1279
  %fi47 = call i32 @injectFault5(i64 1278, i32 %52, i32 10, i32 0, i32 1, i32 0, i8* getelementptr inbounds ([4 x i8]* @sub_namestr, i32 0, i32 0)), !llfi_injectfault !2
  %53 = icmp sle i32 %fi45, %fi47, !llfi_index !1280
  %fi48 = call i1 @injectFault4(i64 1279, i1 %53, i32 46, i32 0, i32 1, i32 0, i8* getelementptr inbounds ([5 x i8]* @icmp_namestr, i32 0, i32 0)), !llfi_injectfault !2
  br i1 %fi48, label %54, label %68, !llfi_index !1281

; <label>:54                                      ; preds = %49
  %55 = load i32* %fi5, align 4, !llfi_index !1282
  %fi49 = call i32 @injectFault5(i64 1281, i32 %55, i32 27, i32 0, i32 1, i32 0, i8* getelementptr inbounds ([5 x i8]* @load_namestr, i32 0, i32 0)), !llfi_injectfault !2
  %56 = sext i32 %fi49 to i64, !llfi_index !1283
  %fi50 = call i64 @injectFault6(i64 1282, i64 %56, i32 35, i32 0, i32 1, i32 0, i8* getelementptr inbounds ([5 x i8]* @sext_namestr, i32 0, i32 0)), !llfi_injectfault !2
  %57 = load double** %fi8, align 8, !llfi_index !1284
  %fi51 = call double* @injectFault3(i64 1283, double* %57, i32 27, i32 0, i32 1, i32 0, i8* getelementptr inbounds ([5 x i8]* @load_namestr, i32 0, i32 0)), !llfi_injectfault !2
  %58 = getelementptr double* %fi51, i64 %fi50, !llfi_index !1285
  %fi52 = call double* @injectFault3(i64 1284, double* %58, i32 29, i32 0, i32 1, i32 0, i8* getelementptr inbounds ([14 x i8]* @getelementptr_namestr, i32 0, i32 0)), !llfi_injectfault !2
  %59 = load double* %fi52, align 8, !llfi_index !1286
  %fi53 = call double @injectFault0(i64 1285, double %59, i32 27, i32 0, i32 1, i32 0, i8* getelementptr inbounds ([5 x i8]* @load_namestr, i32 0, i32 0)), !llfi_injectfault !2
  %60 = call double @exp(double %fi53) #5, !llfi_index !1287
  %fi54 = call double @injectFault0(i64 1286, double %60, i32 49, i32 0, i32 1, i32 0, i8* getelementptr inbounds ([5 x i8]* @call_namestr, i32 0, i32 0)), !llfi_injectfault !2
  %61 = load i32* %fi5, align 4, !llfi_index !1288
  %fi55 = call i32 @injectFault5(i64 1287, i32 %61, i32 27, i32 0, i32 1, i32 0, i8* getelementptr inbounds ([5 x i8]* @load_namestr, i32 0, i32 0)), !llfi_injectfault !2
  %62 = sext i32 %fi55 to i64, !llfi_index !1289
